Certificate:
    Data:
        Version: 3 (0x2)
        Serial Number: 6 (0x6)
        Signature Algorithm: sha256WithRSAEncryption
        Issuer: CN=Test CA
        Validity
            Not Before: Jan  1 00:00:00 1970 GMT
            Not After : Jan 27 18:43:32 2034 GMT
        Subject: CN=127.0.0.1
        Subject Public Key Info:
            Public Key Algorithm: rsaEncryption
                RSA Public-Key: (2048 bit)
                Modulus:
                    00:b9:04:03:80:8d:8f:96:d7:90:83:c1:09:31:1e:
                    2b:03:c7:e3:98:28:27:ff:63:e9:03:6e:94:73:9e:
                    de:47:d4:c0:66:33:e6:e7:29:91:d4:4b:63:d3:8b:
                    ed:18:04:05:84:be:bc:97:6f:56:64:b7:03:f2:cd:
                    ff:fc:f5:1f:1b:72:82:62:fb:db:cd:84:99:a2:28:
                    a5:d7:fb:0a:e4:5c:22:7c:85:f3:2e:d7:e9:6f:4e:
                    4d:29:35:a2:bd:ae:15:7c:87:96:d5:51:23:57:8e:
                    cf:ba:51:e5:56:cb:3e:b5:cf:20:51:66:84:88:ec:
                    c8:96:2a:07:bf:db:be:cc:51:d4:21:6e:66:25:2f:
                    29:5a:a2:84:83:23:b1:2b:ed:93:b0:68:f3:e6:61:
                    0d:2b:e9:7b:58:f7:9a:b8:8a:d8:83:d7:7c:35:48:
                    e9:f0:cf:c4:c8:7d:36:30:2b:ab:e7:58:c9:f4:ea:
                    e5:35:5c:23:55:bd:84:a6:7b:ce:1d:e0:9a:0e:d8:
                    d3:41:52:24:10:a8:76:f7:58:3b:98:64:8b:a7:60:
                    ca:32:41:40:a4:28:bd:55:09:01:a7:32:3f:48:d7:
                    e1:39:14:32:45:1d:00:b4:a0:8b:0e:b2:0e:85:7f:
                    ae:8c:66:e6:8b:6f:6f:ee:c5:c5:ec:2c:65:62:e8:
                    83:0f
                Exponent: 65537 (0x10001)
        X509v3 extensions:
            X509v3 Subject Alternative Name: 
                DNS:127.0.0.1, DNS:127.0.0.2
    Signature Algorithm: sha256WithRSAEncryption
         0c:9f:98:df:3d:2c:3c:4a:09:fa:79:f1:02:b4:42:1b:c6:33:
         78:68:b7:65:1a:f7:17:2d:ca:26:0e:cd:cd:ec:95:ee:35:6b:
         44:9b:04:b8:60:e2:a5:1c:61:e6:2d:26:c4:fd:c4:43:48:d0:
         99:8d:8d:bb:50:33:77:49:45:e3:88:2a:2d:9b:08:24:19:29:
         12:bd:da:f4:bb:58:b3:cb:de:8a:32:28:7a:e9:44:27:a7:8d:
         c3:ad:94:41:57:4c:18:6c:a6:39:c4:4c:d2:7f:80:71:b4:af:
         2c:a7:fb:6d:61:ca:42:1d:22:b0:0b:0e:9b:cf:e2:38:35:74:
         dc:24:82:c3:df:89:ad:8c:5c:1e:0e:fe:0a:70:2b:2d:8a:d1:
         cf:3b:f4:e6:8c:c6:74:fc:ea:7e:a1:80:d2:55:4d:11:87:55:
         1f:65:73:9b:9d:36:17:e1:42:b1:78:a2:e8:39:da:f6:8f:8d:
         a0:f5:8d:b4:39:02:d6:d3:c5:5c:11:28:71:8e:c2:65:37:b2:
         f3:c5:3c:df:79:23:e7:8c:ff:3e:8a:46:14:de:d3:d7:b5:f5:
         cb:68:46:0a:8a:c9:e2:ae:d4:1b:8b:c3:19:a4:43:e7:84:c9:
         41:a2:14:34:4f:7e:80:c6:dd:48:5a:54:69:69:b3:af:86:6b:
         26:0c:20:83
-----BEGIN CERTIFICATE-----
MIICxDCCAaygAwIBAgIBBjANBgkqhkiG9w0BAQsFADASMRAwDgYDVQQDDAdUZXN0
IENBMB4XDTcwMDEwMTAwMDAwMFoXDTM0MDEyNzE4NDMzMlowFDESMBAGA1UEAwwJ
MTI3LjAuMC4xMIIBIjANBgkqhkiG9w0BAQEFAAOCAQ8AMIIBCgKCAQEAuQQDgI2P
lteQg8EJMR4rA8fjmCgn/2PpA26Uc57eR9TAZjPm5ymR1Etj04vtGAQFhL68l29W
ZLcD8s3//PUfG3KCYvvbzYSZoiil1/sK5FwifIXzLtfpb05NKTWiva4VfIeW1VEj
V47PulHlVss+tc8gUWaEiOzIlioHv9u+zFHUIW5mJS8pWqKEgyOxK+2TsGjz5mEN
K+l7WPeauIrYg9d8NUjp8M/EyH02MCur51jJ9OrlNVwjVb2EpnvOHeCaDtjTQVIk
EKh291g7mGSLp2DKMkFApCi9VQkBpzI/SNfhORQyRR0AtKCLDrIOhX+ujGbmi29v
7sXF7CxlYuiDDwIDAQABoyMwITAfBgNVHREEGDAWggkxMjcuMC4wLjGCCTEyNy4w
LjAuMjANBgkqhkiG9w0BAQsFAAOCAQEADJ+Y3z0sPEoJ+nnxArRCG8YzeGi3ZRr3
Fy3KJg7NzeyV7jVrRJsEuGDipRxh5i0mxP3EQ0jQmY2Nu1Azd0lF44gqLZsIJBkp
Er3a9LtYs8veijIoeulEJ6eNw62UQVdMGGymOcRM0n+AcbSvLKf7bWHKQh0isAsO
m8/iODV03CSCw9+JrYxcHg7+CnArLYrRzzv05ozGdPzqfqGA0lVNEYdVH2Vzm502
F+FCsXii6Dna9o+NoPWNtDkC1tPFXBEocY7CZTey88U833kj54z/PopGFN7T17X1
y2hGCorJ4q7UG4vDGaRD54TJQaIUNE9+gMbdSFpUaWmzr4ZrJgwggw==
-----END CERTIFICATE-----
