Certificate:
    Data:
        Version: 3 (0x2)
        Serial Number: 3 (0x3)
    Signature Algorithm: sha256WithRSAEncryption
        Issuer: CN=Test CA
        Validity
            Not Before: Jan  1 00:00:00 1970 GMT
            Not After : Mar  9 21:35:53 2029 GMT
        Subject: CN=127.0.0.1
        Subject Public Key Info:
            Public Key Algorithm: rsaEncryption
                Public-Key: (1024 bit)
                Modulus:
                    00:bb:e1:47:40:df:d0:06:c2:ef:5b:0b:41:41:01:
                    f8:a3:68:fe:18:82:21:5b:97:b5:7c:25:f2:31:b9:
                    50:09:a8:56:71:4c:81:e5:fe:e0:2b:f3:8d:38:e8:
                    fd:15:c2:a3:5a:db:56:5d:29:49:4d:75:e5:ae:69:
                    a7:a3:ac:19:c6:23:cb:1a:23:57:15:aa:ca:e1:e1:
                    78:79:af:49:15:bf:7d:9a:42:16:bc:b1:18:61:68:
                    d8:e1:34:57:4e:73:a0:90:3e:1f:8a:56:fd:0c:eb:
                    f0:fb:03:fd:ec:1b:ff:15:1f:d7:3e:5c:73:09:15:
                    48:83:e5:ff:4e:b3:ea:3a:a9
                Exponent: 65537 (0x10001)
        X509v3 extensions:
            X509v3 Subject Alternative Name: 
                DNS:127.0.0.1, DNS:127.0.0.2
    Signature Algorithm: sha256WithRSAEncryption
         ba:0d:5c:ae:e4:7b:7f:ec:39:f5:e6:29:ab:6a:bf:65:26:87:
         04:50:ca:93:f1:ee:7a:65:3a:6b:7c:b2:d7:96:f2:29:19:8a:
         0d:ed:e3:3d:ed:d1:5d:72:c2:a6:60:bc:13:c6:c0:92:a8:a2:
         23:3b:35:6b:58:a5:c4:7c:74:88:1a:00:bd:47:0f:c8:4b:4d:
         f6:2c:16:61:1c:9a:b9:b6:be:28:0e:41:17:df:bc:f3:21:a8:
         2c:a3:e2:4b:23:e0:2e:06:f3:b6:0e:90:3d:87:8c:da:a8:66:
         14:7e:03:e2:69:85:0d:a7:a9:d9:b6:25:92:fd:13:e1:e9:71:
         f9:da
-----BEGIN CERTIFICATE-----
MIIBvzCCASigAwIBAgIBAzANBgkqhkiG9w0BAQsFADASMRAwDgYDVQQDDAdUZXN0
IENBMB4XDTcwMDEwMTAwMDAwMFoXDTI5MDMwOTIxMzU1M1owFDESMBAGA1UEAwwJ
MTI3LjAuMC4xMIGfMA0GCSqGSIb3DQEBAQUAA4GNADCBiQKBgQC74UdA39AGwu9b
C0FBAfijaP4YgiFbl7V8JfIxuVAJqFZxTIHl/uAr84046P0VwqNa21ZdKUlNdeWu
aaejrBnGI8saI1cVqsrh4Xh5r0kVv32aQha8sRhhaNjhNFdOc6CQPh+KVv0M6/D7
A/3sG/8VH9c+XHMJFUiD5f9Os+o6qQIDAQABoyMwITAfBgNVHREEGDAWggkxMjcu
MC4wLjGCCTEyNy4wLjAuMjANBgkqhkiG9w0BAQsFAAOBgQC6DVyu5Ht/7Dn15imr
ar9lJocEUMqT8e56ZTprfLLXlvIpGYoN7eM97dFdcsKmYLwTxsCSqKIjOzVrWKXE
fHSIGgC9Rw/IS032LBZhHJq5tr4oDkEX37zzIagso+JLI+AuBvO2DpA9h4zaqGYU
fgPiaYUNp6nZtiWS/RPh6XH52g==
-----END CERTIFICATE-----
