Certificate:
    Data:
        Version: 3 (0x2)
        Serial Number: 5 (0x5)
        Signature Algorithm: sha256WithRSAEncryption
        Issuer: CN=Test CA
        Validity
            Not Before: Jan  1 00:00:00 1970 GMT
            Not After : Apr 18 18:46:23 2031 GMT
        Subject: CN=127.0.0.1
        Subject Public Key Info:
            Public Key Algorithm: rsaEncryption
                RSA Public-Key: (2048 bit)
                Modulus:
                    00:ac:e5:d9:12:cd:61:69:66:ca:b9:6d:cf:b7:b5:
                    be:b9:21:de:d5:7d:dd:35:bc:c7:2a:23:a3:46:11:
                    ad:a7:23:02:f9:d1:71:ec:8c:34:c2:9b:bb:dd:6b:
                    b4:1f:4c:01:e9:c3:55:f4:ad:aa:17:24:ce:03:59:
                    54:fc:ce:f0:c0:c0:df:1e:89:b2:99:45:8d:49:cd:
                    68:7e:77:00:65:c2:ed:4a:90:fc:18:d7:50:3c:21:
                    28:a8:93:a1:47:ee:58:da:09:47:7d:67:70:a7:a8:
                    83:ea:38:d8:97:96:fd:f0:b7:17:3b:ab:fc:db:2b:
                    80:cf:e4:eb:4a:0f:0c:80:b0:18:d0:44:9a:6e:74:
                    70:a3:26:35:98:ad:f5:0c:b1:47:43:57:8a:ac:08:
                    30:b7:a0:9a:77:60:07:70:69:ef:50:9d:06:85:90:
                    20:71:67:2e:f5:c8:b0:1b:b2:fd:ff:57:4b:b6:0e:
                    18:d9:7b:95:e1:12:6b:fa:d2:8b:70:f8:1a:d3:36:
                    8d:c8:91:e0:d1:75:5a:21:17:f7:fe:70:e8:46:14:
                    d8:e1:f2:77:7d:21:76:0c:3b:e4:02:b9:d7:18:ac:
                    86:a3:1e:33:fc:34:72:c6:ea:7f:20:fe:39:74:cf:
                    ff:89:47:47:45:e1:71:13:46:7e:84:8c:23:2e:41:
                    1d:87
                Exponent: 65537 (0x10001)
        X509v3 extensions:
            X509v3 Subject Alternative Name: 
                DNS:127.0.0.1, DNS:127.0.0.2
    Signature Algorithm: sha256WithRSAEncryption
         7f:f0:00:00:e5:c3:8d:d1:bf:5a:6c:d5:36:86:8a:08:b6:dc:
         26:b8:4e:af:25:5a:6b:e2:04:50:fe:b1:9a:4b:03:c2:d7:9b:
         7b:6d:3c:51:a9:2b:d2:b1:53:ae:02:df:de:65:a5:95:38:a7:
         72:ac:86:5d:af:fb:67:9a:5f:48:7b:ab:05:54:ea:4d:bf:be:
         d0:45:2b:84:26:4c:c5:62:a8:62:bb:46:5d:6b:e4:b9:aa:1f:
         b7:3d:44:32:ea:c5:b4:d1:3b:e3:ca:7f:47:46:f0:47:10:a5:
         7a:93:65:23:e7:6b:42:2e:52:7f:4e:9d:89:b8:8c:26:de:8e:
         b4:63:be:28:83:2e:06:6a:e6:fc:80:24:de:8a:3f:ab:2d:b6:
         98:2e:60:d0:36:40:cc:52:1b:c9:1b:12:14:ee:2e:29:3f:5d:
         57:6b:17:b0:23:57:e5:f0:64:03:ab:86:3c:1b:4f:d8:3a:27:
         18:b2:82:4e:dc:ca:47:cf:d0:30:a2:d2:48:5a:89:f5:a2:93:
         29:df:fb:dc:c4:a2:ee:40:2b:14:30:cb:ff:ff:a7:df:34:6a:
         54:ae:47:0a:5b:e0:c4:9d:7c:0a:14:16:96:b3:8c:5c:d8:22:
         50:2b:b4:59:01:6a:de:90:14:ea:5a:4d:eb:69:ee:bd:35:e3:
         e6:5a:8b:68
-----BEGIN CERTIFICATE-----
MIICxDCCAaygAwIBAgIBBTANBgkqhkiG9w0BAQsFADASMRAwDgYDVQQDDAdUZXN0
IENBMB4XDTcwMDEwMTAwMDAwMFoXDTMxMDQxODE4NDYyM1owFDESMBAGA1UEAwwJ
MTI3LjAuMC4xMIIBIjANBgkqhkiG9w0BAQEFAAOCAQ8AMIIBCgKCAQEArOXZEs1h
aWbKuW3Pt7W+uSHe1X3dNbzHKiOjRhGtpyMC+dFx7Iw0wpu73Wu0H0wB6cNV9K2q
FyTOA1lU/M7wwMDfHomymUWNSc1ofncAZcLtSpD8GNdQPCEoqJOhR+5Y2glHfWdw
p6iD6jjYl5b98LcXO6v82yuAz+TrSg8MgLAY0ESabnRwoyY1mK31DLFHQ1eKrAgw
t6Cad2AHcGnvUJ0GhZAgcWcu9ciwG7L9/1dLtg4Y2XuV4RJr+tKLcPga0zaNyJHg
0XVaIRf3/nDoRhTY4fJ3fSF2DDvkArnXGKyGox4z/DRyxup/IP45dM//iUdHReFx
E0Z+hIwjLkEdhwIDAQABoyMwITAfBgNVHREEGDAWggkxMjcuMC4wLjGCCTEyNy4w
LjAuMjANBgkqhkiG9w0BAQsFAAOCAQEAf/AAAOXDjdG/WmzVNoaKCLbcJrhOryVa
a+IEUP6xmksDwtebe208Uakr0rFTrgLf3mWllTincqyGXa/7Z5pfSHurBVTqTb++
0EUrhCZMxWKoYrtGXWvkuaoftz1EMurFtNE748p/R0bwRxClepNlI+drQi5Sf06d
ibiMJt6OtGO+KIMuBmrm/IAk3oo/qy22mC5g0DZAzFIbyRsSFO4uKT9dV2sXsCNX
5fBkA6uGPBtP2DonGLKCTtzKR8/QMKLSSFqJ9aKTKd/73MSi7kArFDDL//+n3zRq
VK5HClvgxJ18ChQWlrOMXNgiUCu0WQFq3pAU6lpN62nuvTXj5lqLaA==
-----END CERTIFICATE-----
