Certificate:
    Data:
        Version: 3 (0x2)
        Serial Number: 6 (0x6)
        Signature Algorithm: sha256WithRSAEncryption
        Issuer: CN=Test CA
        Validity
            Not Before: Jan  1 00:00:00 1970 GMT
            Not After : Jun 24 21:18:00 2033 GMT
        Subject: CN=127.0.0.1
        Subject Public Key Info:
            Public Key Algorithm: rsaEncryption
                Public-Key: (2048 bit)
                Modulus:
                    00:d0:13:11:3b:81:35:76:84:fb:b6:4e:c6:e2:7d:
                    1a:16:a5:88:08:dd:50:fd:08:04:a6:ea:a0:6d:09:
                    8c:f2:bf:68:4b:a0:7b:68:84:b3:e4:51:e1:62:3c:
                    68:06:c8:38:3b:0a:a5:8b:da:87:25:cd:2a:76:0b:
                    82:71:89:5b:11:57:cb:dd:b5:ec:75:56:06:a1:26:
                    57:08:54:2d:83:c9:2f:83:f6:d0:e0:c3:ee:78:14:
                    47:f4:5b:ed:54:6a:93:fe:f0:68:a4:fa:93:8c:72:
                    f0:4b:84:f9:94:a2:ed:d8:83:79:9a:0c:c7:d4:33:
                    8e:e6:76:fd:cc:93:e3:3a:b7:56:97:85:f9:87:7e:
                    a9:60:e2:fd:35:9e:31:6b:2e:cb:86:47:e2:67:08:
                    fe:13:52:aa:64:d4:7c:76:09:b5:99:17:19:ed:6b:
                    76:6c:e8:09:b5:98:06:59:c0:4a:1a:0a:a5:f9:0a:
                    73:7c:56:46:32:17:80:3f:09:fa:a7:00:bb:a6:8b:
                    d0:20:83:fe:ab:3c:a6:bf:ed:e6:e4:71:5e:8a:12:
                    da:65:2a:9a:c9:9a:bd:a7:d4:56:c5:42:b9:bc:0f:
                    0d:19:35:d1:72:37:30:e0:28:0f:36:91:a2:7b:e3:
                    62:37:0e:5c:ba:0d:26:dc:0a:66:b3:18:ed:6e:d1:
                    63:b7
                Exponent: 65537 (0x10001)
        X509v3 extensions:
            X509v3 Subject Alternative Name: 
                DNS:127.0.0.1, DNS:127.0.0.2
    Signature Algorithm: sha256WithRSAEncryption
    Signature Value:
        4f:f7:58:a4:e1:bb:12:ea:e0:6b:e0:f0:ca:18:bd:f6:b8:5e:
        f2:c4:0d:9d:1d:b1:d6:a1:96:7f:94:96:1a:c2:91:22:f4:2b:
        e1:96:71:ce:83:0c:84:ff:72:f6:18:72:76:ee:26:9f:0a:92:
        f4:d9:86:f7:62:90:77:6a:b9:a0:b9:61:53:64:f2:12:e9:23:
        31:5a:ee:f7:f7:70:bb:f3:b6:89:b3:bc:64:f1:01:2f:c7:c8:
        0c:70:a9:c6:1f:ca:95:d0:ec:25:43:e4:93:88:8b:c4:4b:50:
        a0:77:79:f0:2f:81:4d:d3:71:93:2a:58:d1:d7:89:64:c0:30:
        50:45:ae:36:e4:37:69:d8:d1:50:83:8d:a4:2f:55:ad:a1:c9:
        ae:68:ac:4d:5f:1b:c9:bc:dc:ff:30:7b:10:da:16:fb:60:f9:
        ba:73:26:44:7d:de:1e:2b:12:69:40:d4:c2:17:b2:76:d4:40:
        fa:2c:b0:c5:54:4a:af:1a:94:b9:62:0c:81:42:9a:c3:bc:d6:
        3a:f7:69:8e:82:91:24:48:46:be:10:bd:ed:c4:71:56:f2:e8:
        73:64:18:d0:8b:7d:b0:66:2f:a6:e3:4d:23:68:11:b0:48:16:
        db:8a:dd:bf:e5:de:5e:35:fa:7a:76:0e:ec:9d:e3:ee:d1:28:
        58:bc:23:bf
-----BEGIN CERTIFICATE-----
MIICxDCCAaygAwIBAgIBBjANBgkqhkiG9w0BAQsFADASMRAwDgYDVQQDDAdUZXN0
IENBMB4XDTcwMDEwMTAwMDAwMFoXDTMzMDYyNDIxMTgwMFowFDESMBAGA1UEAwwJ
MTI3LjAuMC4xMIIBIjANBgkqhkiG9w0BAQEFAAOCAQ8AMIIBCgKCAQEA0BMRO4E1
doT7tk7G4n0aFqWICN1Q/QgEpuqgbQmM8r9oS6B7aISz5FHhYjxoBsg4Owqli9qH
Jc0qdguCcYlbEVfL3bXsdVYGoSZXCFQtg8kvg/bQ4MPueBRH9FvtVGqT/vBopPqT
jHLwS4T5lKLt2IN5mgzH1DOO5nb9zJPjOrdWl4X5h36pYOL9NZ4xay7LhkfiZwj+
E1KqZNR8dgm1mRcZ7Wt2bOgJtZgGWcBKGgql+QpzfFZGMheAPwn6pwC7povQIIP+
qzymv+3m5HFeihLaZSqayZq9p9RWxUK5vA8NGTXRcjcw4CgPNpGie+NiNw5cug0m
3ApmsxjtbtFjtwIDAQABoyMwITAfBgNVHREEGDAWggkxMjcuMC4wLjGCCTEyNy4w
LjAuMjANBgkqhkiG9w0BAQsFAAOCAQEAT/dYpOG7Eurga+Dwyhi99rhe8sQNnR2x
1qGWf5SWGsKRIvQr4ZZxzoMMhP9y9hhydu4mnwqS9NmG92KQd2q5oLlhU2TyEukj
MVru9/dwu/O2ibO8ZPEBL8fIDHCpxh/KldDsJUPkk4iLxEtQoHd58C+BTdNxkypY
0deJZMAwUEWuNuQ3adjRUIONpC9VraHJrmisTV8bybzc/zB7ENoW+2D5unMmRH3e
HisSaUDUwheydtRA+iywxVRKrxqUuWIMgUKaw7zWOvdpjoKRJEhGvhC97cRxVvLo
c2QY0It9sGYvpuNNI2gRsEgW24rdv+XeXjX6enYO7J3j7tEoWLwjvw==
-----END CERTIFICATE-----
