Certificate:
    Data:
        Version: 3 (0x2)
        Serial Number: 3 (0x3)
    Signature Algorithm: sha256WithRSAEncryption
        Issuer: CN=Test CA
        Validity
            Not Before: Jan  1 00:00:00 1970 GMT
            Not After : Mar  3 20:26:24 2029 GMT
        Subject: CN=127.0.0.1
        Subject Public Key Info:
            Public Key Algorithm: rsaEncryption
                Public-Key: (1024 bit)
                Modulus:
                    00:a8:32:0e:1d:19:fa:a6:09:3c:93:f4:99:fa:e4:
                    9d:e0:f8:69:bf:8c:b2:73:80:09:3f:6c:d3:27:12:
                    9c:7e:a2:02:8a:cf:5b:37:eb:ff:09:82:18:de:24:
                    2e:66:d3:7b:47:d8:ac:f4:0c:49:ff:b5:b8:d9:77:
                    9c:32:5b:db:93:ce:40:ff:63:67:f2:e1:53:a2:da:
                    b1:15:4b:03:62:dc:37:db:aa:66:87:aa:e5:99:2b:
                    af:b1:8e:92:c0:0d:4f:10:b2:56:09:4c:7f:cb:f4:
                    0e:c0:d8:28:62:98:7d:4d:08:be:49:7f:24:ac:ae:
                    d8:24:bc:61:92:7b:3c:da:3d
                Exponent: 65537 (0x10001)
        X509v3 extensions:
            X509v3 Subject Alternative Name: 
                DNS:127.0.0.1, DNS:127.0.0.2
    Signature Algorithm: sha256WithRSAEncryption
         74:8b:15:f1:22:66:6e:83:8f:4f:8e:d5:e6:08:b9:ed:d2:4e:
         6d:40:ba:a6:a1:54:b2:7d:ef:f0:ec:0f:47:0c:30:51:04:f6:
         14:12:ec:de:0d:0f:0e:a0:03:ac:41:67:6c:6f:9e:9f:19:94:
         3d:46:2e:6b:d2:68:06:3a:d5:7b:9c:79:cc:ca:c0:e8:56:8c:
         1a:62:1a:19:94:5c:ef:a6:73:60:f8:aa:97:9c:e7:a5:68:1a:
         95:6f:0d:97:66:2d:79:0c:44:87:b9:7a:73:74:d7:00:8e:15:
         b9:2b:ee:b9:12:f9:f1:f5:cf:e1:6c:be:0e:dd:25:e3:03:b7:
         2a:ae
-----BEGIN CERTIFICATE-----
MIIBvzCCASigAwIBAgIBAzANBgkqhkiG9w0BAQsFADASMRAwDgYDVQQDDAdUZXN0
IENBMB4XDTcwMDEwMTAwMDAwMFoXDTI5MDMwMzIwMjYyNFowFDESMBAGA1UEAwwJ
MTI3LjAuMC4xMIGfMA0GCSqGSIb3DQEBAQUAA4GNADCBiQKBgQCoMg4dGfqmCTyT
9Jn65J3g+Gm/jLJzgAk/bNMnEpx+ogKKz1s36/8JghjeJC5m03tH2Kz0DEn/tbjZ
d5wyW9uTzkD/Y2fy4VOi2rEVSwNi3DfbqmaHquWZK6+xjpLADU8QslYJTH/L9A7A
2ChimH1NCL5JfySsrtgkvGGSezzaPQIDAQABoyMwITAfBgNVHREEGDAWggkxMjcu
MC4wLjGCCTEyNy4wLjAuMjANBgkqhkiG9w0BAQsFAAOBgQB0ixXxImZug49PjtXm
CLnt0k5tQLqmoVSyfe/w7A9HDDBRBPYUEuzeDQ8OoAOsQWdsb56fGZQ9Ri5r0mgG
OtV7nHnMysDoVowaYhoZlFzvpnNg+KqXnOelaBqVbw2XZi15DESHuXpzdNcAjhW5
K+65Evnx9c/hbL4O3SXjA7cqrg==
-----END CERTIFICATE-----
