Certificate:
    Data:
        Version: 3 (0x2)
        Serial Number: 5 (0x5)
        Signature Algorithm: sha256WithRSAEncryption
        Issuer: CN=Test CA
        Validity
            Not Before: Jan  1 00:00:00 1970 GMT
            Not After : Jun 15 01:19:37 2031 GMT
        Subject: CN=127.0.0.1
        Subject Public Key Info:
            Public Key Algorithm: rsaEncryption
                RSA Public-Key: (2048 bit)
                Modulus:
                    00:df:40:52:59:4f:eb:dd:d8:06:f5:c0:e8:eb:11:
                    52:31:80:a1:45:8e:3e:07:81:5c:cd:90:ea:2a:d0:
                    84:d3:6d:54:8a:78:0c:6b:34:eb:fc:dd:90:e9:9a:
                    5a:23:24:3b:31:99:17:d9:06:70:a8:51:95:68:50:
                    9d:59:aa:76:2f:28:18:99:81:be:ca:1d:79:75:8b:
                    85:3c:a4:05:39:06:f6:d8:25:13:54:e8:bb:d2:b4:
                    30:35:9e:10:64:2d:25:44:2a:f8:75:1f:60:ec:8a:
                    57:fc:fe:4d:57:f2:9c:e2:0d:6b:c5:f7:2d:ce:f5:
                    9e:93:f8:83:1a:b6:94:e3:c0:e2:b2:56:92:7e:e5:
                    d2:bd:f8:3c:9d:07:b4:85:93:77:5f:62:bd:ba:0e:
                    30:cc:77:46:07:2a:6a:aa:18:bf:0c:f0:23:ef:7d:
                    d9:84:86:35:3e:b5:76:1a:02:f3:9a:11:70:3f:f0:
                    6d:58:d1:2a:19:f8:e1:ed:77:ab:0a:e7:98:12:33:
                    5e:f9:b0:a8:f8:a5:98:c9:4e:3f:6c:01:8a:94:30:
                    c9:19:a1:29:46:18:5e:83:9f:9d:2a:cb:70:db:8a:
                    de:ca:2d:c1:47:82:ba:0b:20:b9:20:09:3c:1d:1c:
                    62:77:a7:85:83:5a:08:28:34:6b:75:e1:cd:7b:b7:
                    e7:e5
                Exponent: 65537 (0x10001)
        X509v3 extensions:
            X509v3 Subject Alternative Name: 
                DNS:127.0.0.1, DNS:127.0.0.2
    Signature Algorithm: sha256WithRSAEncryption
         6f:ef:ac:da:0b:a5:4f:d0:30:57:0c:8c:5a:90:be:18:11:ec:
         e0:25:c2:0e:ef:05:cb:b5:50:43:ba:b7:25:1c:26:60:e8:ad:
         b6:a5:1a:6a:2b:e2:66:e1:3a:b6:00:80:39:e1:19:ef:c2:e8:
         fd:f2:04:0e:ed:fa:1e:e5:f8:f1:32:dc:4e:47:7e:43:a4:09:
         3a:24:b4:fe:ab:7e:d6:b2:d4:4e:e0:9f:e5:c9:79:9b:87:f4:
         7b:3d:40:a4:cf:0e:03:5c:dc:14:82:bf:1b:32:9a:18:0c:5b:
         94:2d:1f:41:b6:a5:e7:89:d7:3b:dc:c8:17:f6:0e:ea:2d:7b:
         a6:04:02:08:9a:b6:3d:66:03:67:16:94:2d:36:13:ee:61:18:
         f9:17:04:6e:16:f3:65:9b:5c:34:ed:49:d8:6e:26:58:ca:68:
         3f:2c:bb:0e:42:64:93:a7:8c:d4:d9:15:ae:fb:0f:f7:f7:ce:
         be:99:6f:40:90:bf:e4:44:c5:44:4a:09:9a:8f:da:f6:b5:a6:
         63:af:6b:37:ee:7c:b7:69:b6:67:76:98:f1:69:18:8e:2c:45:
         bb:04:82:d9:03:31:85:c6:61:d3:38:60:39:45:43:a9:7b:d7:
         f5:fd:18:f2:ec:43:42:0b:69:b8:c5:84:05:ae:a2:02:d3:19:
         80:bd:88:a5
-----BEGIN CERTIFICATE-----
MIICxDCCAaygAwIBAgIBBTANBgkqhkiG9w0BAQsFADASMRAwDgYDVQQDDAdUZXN0
IENBMB4XDTcwMDEwMTAwMDAwMFoXDTMxMDYxNTAxMTkzN1owFDESMBAGA1UEAwwJ
MTI3LjAuMC4xMIIBIjANBgkqhkiG9w0BAQEFAAOCAQ8AMIIBCgKCAQEA30BSWU/r
3dgG9cDo6xFSMYChRY4+B4FczZDqKtCE021UingMazTr/N2Q6ZpaIyQ7MZkX2QZw
qFGVaFCdWap2LygYmYG+yh15dYuFPKQFOQb22CUTVOi70rQwNZ4QZC0lRCr4dR9g
7IpX/P5NV/Kc4g1rxfctzvWek/iDGraU48DislaSfuXSvfg8nQe0hZN3X2K9ug4w
zHdGBypqqhi/DPAj733ZhIY1PrV2GgLzmhFwP/BtWNEqGfjh7XerCueYEjNe+bCo
+KWYyU4/bAGKlDDJGaEpRhheg5+dKstw24reyi3BR4K6CyC5IAk8HRxid6eFg1oI
KDRrdeHNe7fn5QIDAQABoyMwITAfBgNVHREEGDAWggkxMjcuMC4wLjGCCTEyNy4w
LjAuMjANBgkqhkiG9w0BAQsFAAOCAQEAb++s2gulT9AwVwyMWpC+GBHs4CXCDu8F
y7VQQ7q3JRwmYOittqUaaiviZuE6tgCAOeEZ78Lo/fIEDu36HuX48TLcTkd+Q6QJ
OiS0/qt+1rLUTuCf5cl5m4f0ez1ApM8OA1zcFIK/GzKaGAxblC0fQbal54nXO9zI
F/YO6i17pgQCCJq2PWYDZxaULTYT7mEY+RcEbhbzZZtcNO1J2G4mWMpoPyy7DkJk
k6eM1NkVrvsP9/fOvplvQJC/5ETFREoJmo/a9rWmY69rN+58t2m2Z3aY8WkYjixF
uwSC2QMxhcZh0zhgOUVDqXvX9f0Y8uxDQgtpuMWEBa6iAtMZgL2IpQ==
-----END CERTIFICATE-----
