Certificate:
    Data:
        Version: 3 (0x2)
        Serial Number: 3 (0x3)
    Signature Algorithm: sha256WithRSAEncryption
        Issuer: CN=Test CA
        Validity
            Not Before: Jan  1 00:00:00 1970 GMT
            Not After : Apr 19 22:31:22 2029 GMT
        Subject: CN=127.0.0.1
        Subject Public Key Info:
            Public Key Algorithm: rsaEncryption
                Public-Key: (1024 bit)
                Modulus:
                    00:98:34:bb:6c:44:52:00:23:29:ae:bb:7c:c9:91:
                    ec:6b:1c:83:b1:db:6c:b6:1b:12:fb:e3:f4:e4:20:
                    27:6c:c7:50:f9:ac:ef:f8:7a:de:00:4a:01:cb:ba:
                    9b:be:35:3c:e5:33:ef:32:79:61:1c:a6:70:23:19:
                    16:19:ae:33:e5:96:0a:70:3d:81:2f:b3:59:64:89:
                    45:ef:86:97:4d:00:9b:1d:68:9e:8d:5e:75:fb:69:
                    c0:1b:b2:06:1d:97:1a:27:30:38:3e:4f:11:04:70:
                    70:98:c1:6a:fc:93:a5:17:0f:fb:fe:42:31:af:f3:
                    6a:bc:51:dc:33:86:be:5f:c9
                Exponent: 65537 (0x10001)
        X509v3 extensions:
            X509v3 Subject Alternative Name: 
                DNS:127.0.0.1, DNS:127.0.0.2
    Signature Algorithm: sha256WithRSAEncryption
         a0:40:1e:cc:ed:75:47:4b:3a:a6:05:fb:a6:29:22:cd:f9:28:
         4c:f3:3d:0c:e2:df:6c:91:68:52:1b:df:d4:9d:88:36:e9:db:
         ca:94:a4:14:d9:2a:bb:b6:f7:a9:4a:70:f7:db:d7:86:e4:82:
         e4:dd:08:77:03:7b:fb:99:24:fd:15:44:b5:05:dd:b3:ff:dc:
         e0:b4:e8:92:7f:58:b3:2f:48:ba:80:c9:a6:1c:c8:8e:99:e1:
         52:f4:52:90:ad:44:8b:89:39:a1:51:67:15:99:a2:f5:76:75:
         b4:12:f5:5e:99:e7:8b:7b:b1:9d:04:63:31:33:36:0d:a8:67:
         00:42
-----BEGIN CERTIFICATE-----
MIIBvzCCASigAwIBAgIBAzANBgkqhkiG9w0BAQsFADASMRAwDgYDVQQDDAdUZXN0
IENBMB4XDTcwMDEwMTAwMDAwMFoXDTI5MDQxOTIyMzEyMlowFDESMBAGA1UEAwwJ
MTI3LjAuMC4xMIGfMA0GCSqGSIb3DQEBAQUAA4GNADCBiQKBgQCYNLtsRFIAIymu
u3zJkexrHIOx22y2GxL74/TkICdsx1D5rO/4et4ASgHLupu+NTzlM+8yeWEcpnAj
GRYZrjPllgpwPYEvs1lkiUXvhpdNAJsdaJ6NXnX7acAbsgYdlxonMDg+TxEEcHCY
wWr8k6UXD/v+QjGv82q8Udwzhr5fyQIDAQABoyMwITAfBgNVHREEGDAWggkxMjcu
MC4wLjGCCTEyNy4wLjAuMjANBgkqhkiG9w0BAQsFAAOBgQCgQB7M7XVHSzqmBfum
KSLN+ShM8z0M4t9skWhSG9/UnYg26dvKlKQU2Sq7tvepSnD329eG5ILk3Qh3A3v7
mST9FUS1Bd2z/9zgtOiSf1izL0i6gMmmHMiOmeFS9FKQrUSLiTmhUWcVmaL1dnW0
EvVemeeLe7GdBGMxMzYNqGcAQg==
-----END CERTIFICATE-----
