Certificate:
    Data:
        Version: 3 (0x2)
        Serial Number: 1 (0x1)
    Signature Algorithm: sha256WithRSAEncryption
        Issuer: CN=Test CA
        Validity
            Not Before: Jan  1 00:00:00 1970 GMT
            Not After : Mar  3 20:26:24 2029 GMT
        Subject: CN=Test CA Subauthority
        Subject Public Key Info:
            Public Key Algorithm: rsaEncryption
                Public-Key: (1024 bit)
                Modulus:
                    00:b8:87:4d:ef:6e:f3:a3:fc:e6:c5:e1:f9:d6:22:
                    f1:ed:50:ff:ba:18:8d:c7:ce:27:e3:70:40:36:9e:
                    a1:9f:8a:cb:75:7b:3d:9f:71:04:9a:18:85:a6:30:
                    a6:49:cb:d9:31:98:7a:f2:07:40:f2:9d:96:7b:98:
                    73:71:a5:f6:74:9c:32:1d:0a:c6:f9:a8:df:9e:a1:
                    f2:cd:ed:2a:2d:a3:e6:31:33:6d:a3:22:b7:ea:3f:
                    6d:79:f7:0d:b0:45:a3:8a:25:24:7d:90:ef:a7:dd:
                    41:e5:d2:fd:52:ab:10:fe:8d:72:64:0b:80:85:0c:
                    24:1f:78:26:99:0f:f2:cd:31
                Exponent: 65537 (0x10001)
        X509v3 extensions:
            X509v3 Basic Constraints: critical
                CA:FALSE
            X509v3 Key Usage: critical
                Certificate Sign, CRL Sign
            X509v3 Subject Key Identifier: 
                CB:B7:D8:15:1D:C0:7B:3F:1E:C8:2E:1E:32:C4:72:62:98:5E:87:49
            Netscape Comment: 
                Puppet Server Internal Certificate
            X509v3 Authority Key Identifier: 
                keyid:5F:67:9D:DE:33:62:11:B6:CB:E0:7D:8A:5F:27:55:E0:78:C9:E2:F2

    Signature Algorithm: sha256WithRSAEncryption
         2f:5e:5c:46:90:44:40:9a:ab:81:97:6e:54:d8:67:d8:23:f6:
         5b:7e:88:6b:8f:1d:33:e8:81:b5:82:4c:00:cc:46:5f:20:3f:
         f3:b8:68:ee:45:65:5f:bc:4c:d6:29:e2:f4:f4:f8:21:dc:d1:
         ad:4c:af:23:ad:4b:d1:21:ca:be:37:25:a6:7b:8c:5a:ff:2c:
         54:4a:90:57:49:0c:3c:a1:77:fc:2e:83:22:aa:e8:aa:c7:2f:
         87:2c:e7:33:a7:6f:60:4c:91:17:4f:53:aa:6d:c1:76:39:00:
         ce:a2:60:9f:8f:4b:c1:1d:b7:01:1a:fb:64:a5:16:6f:d1:e8:
         58:35
-----BEGIN CERTIFICATE-----
MIICPDCCAaWgAwIBAgIBATANBgkqhkiG9w0BAQsFADASMRAwDgYDVQQDDAdUZXN0
IENBMB4XDTcwMDEwMTAwMDAwMFoXDTI5MDMwMzIwMjYyNFowHzEdMBsGA1UEAwwU
VGVzdCBDQSBTdWJhdXRob3JpdHkwgZ8wDQYJKoZIhvcNAQEBBQADgY0AMIGJAoGB
ALiHTe9u86P85sXh+dYi8e1Q/7oYjcfOJ+NwQDaeoZ+Ky3V7PZ9xBJoYhaYwpknL
2TGYevIHQPKdlnuYc3Gl9nScMh0Kxvmo356h8s3tKi2j5jEzbaMit+o/bXn3DbBF
o4olJH2Q76fdQeXS/VKrEP6NcmQLgIUMJB94JpkP8s0xAgMBAAGjgZQwgZEwDAYD
VR0TAQH/BAIwADAOBgNVHQ8BAf8EBAMCAQYwHQYDVR0OBBYEFMu32BUdwHs/Hsgu
HjLEcmKYXodJMDEGCWCGSAGG+EIBDQQkFiJQdXBwZXQgU2VydmVyIEludGVybmFs
IENlcnRpZmljYXRlMB8GA1UdIwQYMBaAFF9nnd4zYhG2y+B9il8nVeB4yeLyMA0G
CSqGSIb3DQEBCwUAA4GBAC9eXEaQRECaq4GXblTYZ9gj9lt+iGuPHTPogbWCTADM
Rl8gP/O4aO5FZV+8TNYp4vT0+CHc0a1MryOtS9Ehyr43JaZ7jFr/LFRKkFdJDDyh
d/wugyKq6KrHL4cs5zOnb2BMkRdPU6ptwXY5AM6iYJ+PS8EdtwEa+2SlFm/R6Fg1
-----END CERTIFICATE-----
