Certificate:
    Data:
        Version: 3 (0x2)
        Serial Number: 3 (0x3)
        Signature Algorithm: sha256WithRSAEncryption
        Issuer: CN=Test CA
        Validity
            Not Before: Jan  1 00:00:00 1970 GMT
            Not After : Jun 24 21:18:00 2033 GMT
        Subject: CN=Test CA Subauthority
        Subject Public Key Info:
            Public Key Algorithm: rsaEncryption
                Public-Key: (2048 bit)
                Modulus:
                    00:c0:91:fc:98:ec:30:6b:f0:5c:d6:0b:ed:79:ab:
                    69:80:c1:ca:5b:d5:4a:a3:e3:1b:3e:25:f1:47:0b:
                    7b:9f:dc:1b:0a:8b:d6:0a:c1:e8:8b:ca:38:68:be:
                    91:58:d7:ff:41:a1:00:48:59:a0:62:2e:1d:e7:2d:
                    7a:c5:64:4d:be:48:30:eb:4f:e3:9e:3f:06:a4:ef:
                    e4:95:5c:86:ff:54:24:49:75:16:84:41:78:c5:8d:
                    ac:ff:af:95:91:ae:e1:f3:92:f0:a1:dd:18:e9:7c:
                    8e:d0:86:e9:84:84:f3:cb:4c:9c:12:f6:a7:54:f0:
                    9c:87:3b:f1:50:67:cf:12:04:11:c0:1b:e0:46:e4:
                    03:73:9c:3c:ea:ed:3e:31:2f:bc:cf:bd:38:fb:1d:
                    fa:f5:8d:66:e7:f2:0b:5f:df:0f:99:ec:45:c9:aa:
                    e4:10:ad:5b:64:a5:da:af:27:e1:47:ac:4f:aa:aa:
                    74:a5:0e:9c:14:c4:89:ef:ce:fb:50:38:b9:f9:09:
                    d6:f9:ba:5b:49:1c:8c:70:9c:0d:4e:3c:94:6d:9e:
                    63:24:c3:e8:49:74:7a:79:02:0d:b4:6f:f3:b9:e0:
                    c0:4c:74:24:21:56:b5:57:e6:c9:29:08:1b:63:6d:
                    2d:9c:e2:68:33:c1:cf:60:07:54:88:d4:da:6c:15:
                    48:1b
                Exponent: 65537 (0x10001)
        X509v3 extensions:
            X509v3 Basic Constraints: critical
                CA:FALSE
            X509v3 Key Usage: critical
                Certificate Sign, CRL Sign
            X509v3 Subject Key Identifier: 
                38:7E:66:C4:7A:8B:16:EC:8A:0C:76:FC:C4:A6:7F:79:E5:DD:9A:FB
            Netscape Comment: 
                Puppet Server Internal Certificate
            X509v3 Authority Key Identifier: 
                83:68:26:16:4A:C3:88:0A:A6:48:43:98:E7:2D:4F:5F:70:8C:62:B2
    Signature Algorithm: sha256WithRSAEncryption
    Signature Value:
        8c:4b:be:0e:b0:af:d0:14:7f:04:4d:99:65:3e:ec:43:6e:62:
        5c:89:4e:60:74:c3:72:ae:2d:f1:9c:e6:5f:c6:2c:d3:d7:9b:
        af:f2:8d:51:d3:7c:bc:34:4d:35:49:f5:78:6d:41:8c:c3:0d:
        bf:4a:6f:dc:f0:d7:92:9d:2b:71:16:c8:20:40:b8:21:f8:2a:
        6b:a0:f5:54:40:13:25:b9:fe:bf:29:0a:d3:b5:71:13:9d:92:
        f9:db:c1:e6:fa:04:24:b6:1c:61:46:2d:6c:8e:18:c5:f2:30:
        00:6e:f5:d3:4b:c0:2e:68:3e:6e:b6:5c:ee:e4:98:04:71:df:
        b5:58:0b:3b:04:72:e2:1e:ea:cf:94:a2:d4:1e:60:a4:87:00:
        5a:80:28:85:85:5e:98:d6:bc:7a:be:ce:68:cd:3f:d4:2d:b2:
        e3:84:61:d5:4d:d1:86:74:3a:e1:47:ec:7d:0f:3f:88:e2:1b:
        86:5a:01:03:6a:cb:1d:10:5b:0d:c7:c5:66:e4:e4:7e:02:ae:
        d3:a9:3f:0a:66:70:48:65:f0:fa:53:bb:65:1c:dd:03:6c:ff:
        3a:6d:47:7d:b1:a0:68:df:ff:59:05:84:e3:fb:de:59:a4:00:
        7b:6b:8a:de:a2:d5:69:62:57:af:11:5e:12:40:6a:58:a1:8a:
        f5:55:34:30
-----BEGIN CERTIFICATE-----
MIIDQTCCAimgAwIBAgIBAzANBgkqhkiG9w0BAQsFADASMRAwDgYDVQQDDAdUZXN0
IENBMB4XDTcwMDEwMTAwMDAwMFoXDTMzMDYyNDIxMTgwMFowHzEdMBsGA1UEAwwU
VGVzdCBDQSBTdWJhdXRob3JpdHkwggEiMA0GCSqGSIb3DQEBAQUAA4IBDwAwggEK
AoIBAQDAkfyY7DBr8FzWC+15q2mAwcpb1Uqj4xs+JfFHC3uf3BsKi9YKweiLyjho
vpFY1/9BoQBIWaBiLh3nLXrFZE2+SDDrT+OePwak7+SVXIb/VCRJdRaEQXjFjaz/
r5WRruHzkvCh3RjpfI7QhumEhPPLTJwS9qdU8JyHO/FQZ88SBBHAG+BG5ANznDzq
7T4xL7zPvTj7Hfr1jWbn8gtf3w+Z7EXJquQQrVtkpdqvJ+FHrE+qqnSlDpwUxInv
zvtQOLn5Cdb5ultJHIxwnA1OPJRtnmMkw+hJdHp5Ag20b/O54MBMdCQhVrVX5skp
CBtjbS2c4mgzwc9gB1SI1NpsFUgbAgMBAAGjgZQwgZEwDAYDVR0TAQH/BAIwADAO
BgNVHQ8BAf8EBAMCAQYwHQYDVR0OBBYEFDh+ZsR6ixbsigx2/MSmf3nl3Zr7MDEG
CWCGSAGG+EIBDQQkFiJQdXBwZXQgU2VydmVyIEludGVybmFsIENlcnRpZmljYXRl
MB8GA1UdIwQYMBaAFINoJhZKw4gKpkhDmOctT19wjGKyMA0GCSqGSIb3DQEBCwUA
A4IBAQCMS74OsK/QFH8ETZllPuxDbmJciU5gdMNyri3xnOZfxizT15uv8o1R03y8
NE01SfV4bUGMww2/Sm/c8NeSnStxFsggQLgh+CproPVUQBMluf6/KQrTtXETnZL5
28Hm+gQkthxhRi1sjhjF8jAAbvXTS8AuaD5utlzu5JgEcd+1WAs7BHLiHurPlKLU
HmCkhwBagCiFhV6Y1rx6vs5ozT/ULbLjhGHVTdGGdDrhR+x9Dz+I4huGWgEDassd
EFsNx8Vm5OR+Aq7TqT8KZnBIZfD6U7tlHN0DbP86bUd9saBo3/9ZBYTj+95ZpAB7
a4reotVpYlevEV4SQGpYoYr1VTQw
-----END CERTIFICATE-----
