Certificate:
    Data:
        Version: 3 (0x2)
        Serial Number: 8 (0x8)
    Signature Algorithm: sha256WithRSAEncryption
        Issuer: CN=Test CA
        Validity
            Not Before: Jan  1 00:00:00 1970 GMT
            Not After : Apr 19 22:31:22 2029 GMT
        Subject: CN=Test CA
        Subject Public Key Info:
            Public Key Algorithm: rsaEncryption
                Public-Key: (1024 bit)
                Modulus:
                    00:d0:b3:d8:3f:2b:c0:45:8c:f0:3d:96:58:2c:5e:
                    0e:6a:46:81:ab:10:2f:22:9c:7c:69:f0:61:b7:2d:
                    f2:2f:46:97:d5:d9:1b:08:c8:c9:e8:18:a5:d8:89:
                    27:a7:80:cb:0a:8e:ee:26:32:89:70:37:2b:bf:6f:
                    7e:ee:12:7d:49:c7:0c:19:46:7c:65:99:dc:1f:1a:
                    31:af:ab:87:01:b3:68:8a:5b:51:a7:78:ca:cc:1d:
                    7c:26:b4:27:5f:67:75:99:7e:9f:16:ed:88:b3:8f:
                    77:0f:b3:e8:b3:97:bc:70:8b:ec:62:b9:a2:47:4b:
                    ef:dc:af:d4:9f:3d:17:cd:03
                Exponent: 65537 (0x10001)
        X509v3 extensions:
            X509v3 Basic Constraints: critical
                CA:FALSE
            X509v3 Key Usage: critical
                Certificate Sign, CRL Sign
            X509v3 Subject Key Identifier: 
                2C:25:19:A1:6C:B3:F7:69:FD:76:9B:3A:22:CB:0C:56:01:01:F1:31
            Netscape Comment: 
                Puppet Server Internal Certificate
            X509v3 Authority Key Identifier: 
                keyid:2C:25:19:A1:6C:B3:F7:69:FD:76:9B:3A:22:CB:0C:56:01:01:F1:31

    Signature Algorithm: sha256WithRSAEncryption
         12:60:01:ec:ea:6c:bc:d6:4e:e7:40:b6:9f:cd:8c:6e:6d:42:
         4f:d8:db:42:f8:8d:04:09:48:ad:22:50:e5:de:7f:ec:d5:19:
         21:3f:6b:d0:85:d4:75:20:18:a7:cc:a0:7c:b2:08:6f:d6:7b:
         a7:63:22:25:1b:f8:20:66:ea:b7:40:09:25:05:7b:61:6d:a1:
         4f:af:72:51:c9:c8:42:87:04:ab:6e:b6:98:ed:f9:9c:98:64:
         dc:78:e0:f1:21:16:46:93:67:89:af:a7:da:b4:8d:b7:11:a8:
         9a:9b:66:be:a4:7f:71:84:57:b4:2b:3c:56:e0:37:f9:6a:29:
         cd:4a
-----BEGIN CERTIFICATE-----
MIICLzCCAZigAwIBAgIBCDANBgkqhkiG9w0BAQsFADASMRAwDgYDVQQDDAdUZXN0
IENBMB4XDTcwMDEwMTAwMDAwMFoXDTI5MDQxOTIyMzEyMlowEjEQMA4GA1UEAwwH
VGVzdCBDQTCBnzANBgkqhkiG9w0BAQEFAAOBjQAwgYkCgYEA0LPYPyvARYzwPZZY
LF4OakaBqxAvIpx8afBhty3yL0aX1dkbCMjJ6Bil2Iknp4DLCo7uJjKJcDcrv29+
7hJ9SccMGUZ8ZZncHxoxr6uHAbNoiltRp3jKzB18JrQnX2d1mX6fFu2Is493D7Po
s5e8cIvsYrmiR0vv3K/Unz0XzQMCAwEAAaOBlDCBkTAMBgNVHRMBAf8EAjAAMA4G
A1UdDwEB/wQEAwIBBjAdBgNVHQ4EFgQULCUZoWyz92n9dps6IssMVgEB8TEwMQYJ
YIZIAYb4QgENBCQWIlB1cHBldCBTZXJ2ZXIgSW50ZXJuYWwgQ2VydGlmaWNhdGUw
HwYDVR0jBBgwFoAULCUZoWyz92n9dps6IssMVgEB8TEwDQYJKoZIhvcNAQELBQAD
gYEAEmAB7OpsvNZO50C2n82Mbm1CT9jbQviNBAlIrSJQ5d5/7NUZIT9r0IXUdSAY
p8ygfLIIb9Z7p2MiJRv4IGbqt0AJJQV7YW2hT69yUcnIQocEq262mO35nJhk3Hjg
8SEWRpNnia+n2rSNtxGomptmvqR/cYRXtCs8VuA3+WopzUo=
-----END CERTIFICATE-----
