Certificate:
    Data:
        Version: 3 (0x2)
        Serial Number: 10 (0xa)
        Signature Algorithm: sha256WithRSAEncryption
        Issuer: CN=Test CA
        Validity
            Not Before: Jan  1 00:00:00 1970 GMT
            Not After : Apr 18 18:46:23 2031 GMT
        Subject: CN=Test CA
        Subject Public Key Info:
            Public Key Algorithm: rsaEncryption
                RSA Public-Key: (2048 bit)
                Modulus:
                    00:dd:a5:83:44:db:51:be:98:ef:b1:63:a7:04:b9:
                    ff:cd:71:d3:06:76:c4:25:68:e8:ea:ef:c5:b4:f9:
                    c2:76:aa:c0:1b:1b:0f:44:13:da:db:cf:d4:f4:88:
                    5c:cc:ac:f2:76:fb:9e:b6:2e:40:da:b8:c1:c8:cd:
                    24:90:63:10:6c:99:ee:0c:10:74:cc:38:b8:f3:b4:
                    d9:ed:1e:ac:07:29:b4:fe:f1:16:c2:18:7c:34:fd:
                    50:25:0f:f7:45:84:e0:4b:21:41:a4:5b:19:42:85:
                    a3:a8:d3:6a:ea:0f:80:f3:1a:06:f8:aa:31:4b:e5:
                    44:a8:37:80:d1:1b:01:ae:f3:b8:35:c6:3f:10:82:
                    84:fc:59:d9:47:d6:a9:e3:5e:f3:9f:89:23:6a:ed:
                    bc:92:6a:a1:49:2c:99:c3:89:b3:ab:3a:9f:6b:2d:
                    e6:39:95:15:e0:71:5f:6b:6a:23:2e:bc:cd:40:b2:
                    47:42:13:f4:f5:e7:43:76:5c:db:9d:10:3b:91:10:
                    cc:c7:27:db:a8:18:53:c9:50:eb:83:39:80:98:bf:
                    c0:cf:75:a8:31:56:2c:0f:32:44:b0:b8:2d:22:f9:
                    f6:a2:d6:0b:cf:5f:a2:89:7c:15:97:a9:01:5c:97:
                    6a:b9:9c:c2:aa:fd:a3:d9:aa:61:04:65:e4:13:7e:
                    58:7d
                Exponent: 65537 (0x10001)
        X509v3 extensions:
            X509v3 Basic Constraints: critical
                CA:FALSE
            X509v3 Key Usage: critical
                Certificate Sign, CRL Sign
            X509v3 Subject Key Identifier: 
                61:DF:EE:CE:DA:49:6B:5E:F3:EF:94:FE:F9:DC:C7:C0:5A:74:FE:DB
            Netscape Comment: 
                Puppet Server Internal Certificate
            X509v3 Authority Key Identifier: 
                keyid:61:DF:EE:CE:DA:49:6B:5E:F3:EF:94:FE:F9:DC:C7:C0:5A:74:FE:DB

    Signature Algorithm: sha256WithRSAEncryption
         86:10:78:cb:49:09:83:84:9c:7f:33:c8:fc:08:d6:db:02:b7:
         d3:e7:6b:62:3a:fd:37:d6:b8:a7:5c:8c:42:fb:b0:d6:de:5c:
         5b:47:2c:22:05:e3:9b:05:2d:96:23:96:2f:40:c7:22:aa:32:
         5d:b9:73:31:44:c2:60:f1:e5:d8:a3:c1:38:68:ec:37:4e:b0:
         da:5e:88:b6:64:6b:8d:c3:fc:bd:08:df:81:f9:16:5a:27:1b:
         3e:7d:8c:ac:7c:59:52:b9:cd:f3:77:1a:dc:fe:4e:92:cd:2b:
         29:1e:0b:ea:1a:90:a4:da:39:06:52:6f:15:db:58:58:b1:9f:
         7a:3f:e2:a1:b2:8e:ce:32:e2:5c:f4:55:0d:21:0a:53:35:ce:
         50:fd:98:6a:c1:1f:72:83:69:a3:43:0b:3b:f5:36:76:5e:c3:
         cb:1d:47:51:a0:e4:1f:1f:2a:ce:8e:8c:da:41:ce:4b:ea:47:
         2d:36:d5:2d:d5:e0:44:39:4d:07:1e:79:65:5c:69:46:1a:9a:
         12:ba:ce:55:9c:73:ed:75:51:30:db:71:f9:34:87:08:ec:a0:
         23:6e:c3:8e:da:81:4f:3d:3b:70:42:a6:f8:16:82:03:17:ca:
         ba:73:4a:8d:34:36:c1:b6:2a:ef:85:89:26:2a:a2:34:db:fc:
         c9:b8:1b:0b
-----BEGIN CERTIFICATE-----
MIIDNDCCAhygAwIBAgIBCjANBgkqhkiG9w0BAQsFADASMRAwDgYDVQQDDAdUZXN0
IENBMB4XDTcwMDEwMTAwMDAwMFoXDTMxMDQxODE4NDYyM1owEjEQMA4GA1UEAwwH
VGVzdCBDQTCCASIwDQYJKoZIhvcNAQEBBQADggEPADCCAQoCggEBAN2lg0TbUb6Y
77FjpwS5/81x0wZ2xCVo6OrvxbT5wnaqwBsbD0QT2tvP1PSIXMys8nb7nrYuQNq4
wcjNJJBjEGyZ7gwQdMw4uPO02e0erAcptP7xFsIYfDT9UCUP90WE4EshQaRbGUKF
o6jTauoPgPMaBviqMUvlRKg3gNEbAa7zuDXGPxCChPxZ2UfWqeNe85+JI2rtvJJq
oUksmcOJs6s6n2st5jmVFeBxX2tqIy68zUCyR0IT9PXnQ3Zc250QO5EQzMcn26gY
U8lQ64M5gJi/wM91qDFWLA8yRLC4LSL59qLWC89fool8FZepAVyXarmcwqr9o9mq
YQRl5BN+WH0CAwEAAaOBlDCBkTAMBgNVHRMBAf8EAjAAMA4GA1UdDwEB/wQEAwIB
BjAdBgNVHQ4EFgQUYd/uztpJa17z75T++dzHwFp0/tswMQYJYIZIAYb4QgENBCQW
IlB1cHBldCBTZXJ2ZXIgSW50ZXJuYWwgQ2VydGlmaWNhdGUwHwYDVR0jBBgwFoAU
Yd/uztpJa17z75T++dzHwFp0/tswDQYJKoZIhvcNAQELBQADggEBAIYQeMtJCYOE
nH8zyPwI1tsCt9Pna2I6/TfWuKdcjEL7sNbeXFtHLCIF45sFLZYjli9AxyKqMl25
czFEwmDx5dijwTho7DdOsNpeiLZka43D/L0I34H5FlonGz59jKx8WVK5zfN3Gtz+
TpLNKykeC+oakKTaOQZSbxXbWFixn3o/4qGyjs4y4lz0VQ0hClM1zlD9mGrBH3KD
aaNDCzv1NnZew8sdR1Gg5B8fKs6OjNpBzkvqRy021S3V4EQ5TQceeWVcaUYamhK6
zlWcc+11UTDbcfk0hwjsoCNuw47agU89O3BCpvgWggMXyrpzSo00NsG2Ku+FiSYq
ojTb/Mm4Gws=
-----END CERTIFICATE-----
