Certificate:
    Data:
        Version: 3 (0x2)
        Serial Number: 7 (0x7)
    Signature Algorithm: sha256WithRSAEncryption
        Issuer: CN=Test CA
        Validity
            Not Before: Jan  1 00:00:00 1970 GMT
            Not After : Mar  9 21:35:53 2029 GMT
        Subject: CN=Test CA
        Subject Public Key Info:
            Public Key Algorithm: rsaEncryption
                Public-Key: (1024 bit)
                Modulus:
                    00:c8:15:08:03:7c:69:d7:4d:05:f9:81:0c:f3:f1:
                    77:ed:4a:e8:7c:f7:ac:77:bb:5c:8b:5c:96:31:01:
                    bf:aa:b4:16:e6:d6:b3:22:15:4b:5c:8e:3c:99:af:
                    7b:7d:1a:e8:0d:3d:40:14:37:00:f5:37:3a:00:06:
                    e1:0b:0e:37:b8:76:62:a3:9a:5e:47:d5:d4:2a:4e:
                    13:50:a9:0c:7a:b1:69:e7:79:9a:30:51:66:0b:e4:
                    b7:b9:7d:e4:5b:61:19:0b:8f:79:a9:43:b0:a1:ff:
                    c7:a6:7a:a6:fa:2e:88:28:84:66:68:bf:bf:b6:64:
                    9e:1e:b7:e7:fe:35:63:65:51
                Exponent: 65537 (0x10001)
        X509v3 extensions:
            X509v3 Basic Constraints: critical
                CA:FALSE
            X509v3 Key Usage: critical
                Certificate Sign, CRL Sign
            X509v3 Subject Key Identifier: 
                93:70:43:DA:C0:AA:14:71:0F:93:EB:82:E7:F5:AE:C9:D2:1A:78:77
            Netscape Comment: 
                Puppet Server Internal Certificate
            X509v3 Authority Key Identifier: 
                keyid:93:70:43:DA:C0:AA:14:71:0F:93:EB:82:E7:F5:AE:C9:D2:1A:78:77

    Signature Algorithm: sha256WithRSAEncryption
         75:cc:05:b2:d8:43:aa:99:84:5d:64:0b:ac:cc:af:07:a7:0d:
         90:79:9f:c9:dc:09:e6:59:d8:d1:c2:0e:2a:96:ab:80:38:f8:
         1a:1d:d1:e2:0c:c0:fa:df:c0:cf:0c:78:30:ac:d0:b7:e9:88:
         31:d6:05:29:41:8f:2e:32:f2:98:74:fc:19:4b:d8:c5:36:c3:
         7a:a7:ae:8c:65:b0:4b:f0:fb:f8:86:ad:08:53:43:8f:f5:52:
         a0:9b:cf:e8:2d:60:57:4f:f3:ab:63:3c:f2:23:da:d0:5a:de:
         2f:64:25:c3:4f:ff:51:c9:51:22:38:b4:e6:a6:87:50:a8:ea:
         9f:f3
-----BEGIN CERTIFICATE-----
MIICLzCCAZigAwIBAgIBBzANBgkqhkiG9w0BAQsFADASMRAwDgYDVQQDDAdUZXN0
IENBMB4XDTcwMDEwMTAwMDAwMFoXDTI5MDMwOTIxMzU1M1owEjEQMA4GA1UEAwwH
VGVzdCBDQTCBnzANBgkqhkiG9w0BAQEFAAOBjQAwgYkCgYEAyBUIA3xp100F+YEM
8/F37UrofPesd7tci1yWMQG/qrQW5tazIhVLXI48ma97fRroDT1AFDcA9Tc6AAbh
Cw43uHZio5peR9XUKk4TUKkMerFp53maMFFmC+S3uX3kW2EZC495qUOwof/Hpnqm
+i6IKIRmaL+/tmSeHrfn/jVjZVECAwEAAaOBlDCBkTAMBgNVHRMBAf8EAjAAMA4G
A1UdDwEB/wQEAwIBBjAdBgNVHQ4EFgQUk3BD2sCqFHEPk+uC5/WuydIaeHcwMQYJ
YIZIAYb4QgENBCQWIlB1cHBldCBTZXJ2ZXIgSW50ZXJuYWwgQ2VydGlmaWNhdGUw
HwYDVR0jBBgwFoAUk3BD2sCqFHEPk+uC5/WuydIaeHcwDQYJKoZIhvcNAQELBQAD
gYEAdcwFsthDqpmEXWQLrMyvB6cNkHmfydwJ5lnY0cIOKpargDj4Gh3R4gzA+t/A
zwx4MKzQt+mIMdYFKUGPLjLymHT8GUvYxTbDeqeujGWwS/D7+IatCFNDj/VSoJvP
6C1gV0/zq2M88iPa0FreL2Qlw0//UclRIji05qaHUKjqn/M=
-----END CERTIFICATE-----
