Certificate:
    Data:
        Version: 3 (0x2)
        Serial Number: 5 (0x5)
    Signature Algorithm: sha256WithRSAEncryption
        Issuer: CN=Test CA
        Validity
            Not Before: Jan  1 00:00:00 1970 GMT
            Not After : Mar  3 20:26:24 2029 GMT
        Subject: CN=Test CA
        Subject Public Key Info:
            Public Key Algorithm: rsaEncryption
                Public-Key: (1024 bit)
                Modulus:
                    00:c9:47:85:44:02:d5:fa:9c:58:e6:ff:d2:f7:d7:
                    64:d0:f6:83:90:85:a0:3b:9d:ae:81:db:9a:80:1e:
                    70:2b:ac:d6:fc:d5:43:f9:89:8d:fe:67:b0:ba:7b:
                    ac:40:7b:6e:6f:87:e7:38:49:3b:e6:82:90:00:10:
                    b1:e9:d4:f1:35:64:d8:49:68:54:fc:8f:67:8d:19:
                    87:b5:d6:de:05:69:1c:f9:42:6c:18:bd:2f:3c:b2:
                    39:5d:7e:12:ef:c7:1e:19:6e:59:70:db:68:96:3d:
                    93:15:7f:4f:ff:e2:43:ae:5f:9a:00:4a:d0:8c:15:
                    3e:38:de:a4:44:c3:4f:37:eb
                Exponent: 65537 (0x10001)
        X509v3 extensions:
            X509v3 Basic Constraints: critical
                CA:FALSE
            X509v3 Key Usage: critical
                Certificate Sign, CRL Sign
            X509v3 Subject Key Identifier: 
                5F:67:9D:DE:33:62:11:B6:CB:E0:7D:8A:5F:27:55:E0:78:C9:E2:F2
            Netscape Comment: 
                Puppet Server Internal Certificate
            X509v3 Authority Key Identifier: 
                keyid:5F:67:9D:DE:33:62:11:B6:CB:E0:7D:8A:5F:27:55:E0:78:C9:E2:F2

    Signature Algorithm: sha256WithRSAEncryption
         a7:d3:09:ae:23:77:bf:4b:52:29:7b:21:44:35:1b:0b:8b:25:
         e6:fa:68:cb:96:6c:9a:9d:34:21:7c:1f:88:90:02:50:36:ad:
         03:3a:7b:ab:ea:26:24:4a:d7:3c:90:9d:46:a6:96:b2:cd:5c:
         80:ec:0f:3d:86:4b:f4:15:3c:4a:d2:66:d1:73:65:2f:45:ea:
         3c:52:4a:11:18:15:12:35:7a:b3:bb:48:35:e4:63:60:18:72:
         9a:49:c8:d9:c1:f8:4d:cb:9c:69:db:b4:aa:df:82:c0:27:f1:
         c3:05:bf:c8:be:65:a1:a5:c5:85:bf:0b:21:0a:ae:af:ef:a7:
         33:e4
-----BEGIN CERTIFICATE-----
MIICLzCCAZigAwIBAgIBBTANBgkqhkiG9w0BAQsFADASMRAwDgYDVQQDDAdUZXN0
IENBMB4XDTcwMDEwMTAwMDAwMFoXDTI5MDMwMzIwMjYyNFowEjEQMA4GA1UEAwwH
VGVzdCBDQTCBnzANBgkqhkiG9w0BAQEFAAOBjQAwgYkCgYEAyUeFRALV+pxY5v/S
99dk0PaDkIWgO52ugduagB5wK6zW/NVD+YmN/mewunusQHtub4fnOEk75oKQABCx
6dTxNWTYSWhU/I9njRmHtdbeBWkc+UJsGL0vPLI5XX4S78ceGW5ZcNtolj2TFX9P
/+JDrl+aAErQjBU+ON6kRMNPN+sCAwEAAaOBlDCBkTAMBgNVHRMBAf8EAjAAMA4G
A1UdDwEB/wQEAwIBBjAdBgNVHQ4EFgQUX2ed3jNiEbbL4H2KXydV4HjJ4vIwMQYJ
YIZIAYb4QgENBCQWIlB1cHBldCBTZXJ2ZXIgSW50ZXJuYWwgQ2VydGlmaWNhdGUw
HwYDVR0jBBgwFoAUX2ed3jNiEbbL4H2KXydV4HjJ4vIwDQYJKoZIhvcNAQELBQAD
gYEAp9MJriN3v0tSKXshRDUbC4sl5vpoy5Zsmp00IXwfiJACUDatAzp7q+omJErX
PJCdRqaWss1cgOwPPYZL9BU8StJm0XNlL0XqPFJKERgVEjV6s7tINeRjYBhymknI
2cH4Tcucadu0qt+CwCfxwwW/yL5loaXFhb8LIQqur++nM+Q=
-----END CERTIFICATE-----
