Certificate:
    Data:
        Version: 3 (0x2)
        Serial Number: 12 (0xc)
        Signature Algorithm: sha256WithRSAEncryption
        Issuer: CN=Test CA
        Validity
            Not Before: Jan  1 00:00:00 1970 GMT
            Not After : Jun 24 21:18:00 2033 GMT
        Subject: CN=Test CA
        Subject Public Key Info:
            Public Key Algorithm: rsaEncryption
                Public-Key: (2048 bit)
                Modulus:
                    00:f4:9a:3e:d9:2b:e1:1e:ea:3c:85:7d:27:87:f5:
                    f7:50:c6:60:f0:79:3b:86:23:ce:c9:ba:42:22:1b:
                    61:1a:bc:33:c7:cf:e2:56:8f:6c:84:3e:4e:d0:48:
                    b5:27:7e:7b:49:de:2b:5d:b2:9c:e6:49:53:52:c8:
                    89:92:cb:e1:6c:30:67:c6:74:25:e3:3f:7a:37:ef:
                    54:b4:bd:80:07:a6:db:77:5c:8f:56:ed:1b:14:af:
                    2a:12:f5:44:88:15:a3:63:f2:f9:44:fb:51:ed:9a:
                    6d:9c:cf:48:69:f6:d0:c9:6c:57:ee:1b:be:04:91:
                    b3:ad:16:ed:c8:d0:bf:b4:55:6b:e9:3c:2b:8c:57:
                    19:bc:f1:76:6f:90:8d:e4:60:79:c7:03:e3:9d:83:
                    42:ec:0e:79:78:3c:30:c4:d5:87:63:4d:2c:17:ad:
                    c6:ea:3b:ff:e4:73:1a:12:bb:ed:d3:f6:9d:9d:d9:
                    e7:05:7f:21:6c:27:0a:27:c5:6e:c8:53:6c:a3:bb:
                    0e:11:fa:c4:ab:97:8f:a1:fd:bd:f3:5e:fb:80:1d:
                    15:87:c7:b4:20:94:fc:cb:ac:06:a8:ae:b1:80:a0:
                    5d:50:68:8d:49:63:1b:b2:77:a2:6b:81:21:b6:58:
                    3a:f2:3d:21:ac:a5:91:bc:7d:36:46:f4:87:ea:ce:
                    a3:0f
                Exponent: 65537 (0x10001)
        X509v3 extensions:
            X509v3 Basic Constraints: critical
                CA:FALSE
            X509v3 Key Usage: critical
                Certificate Sign, CRL Sign
            X509v3 Subject Key Identifier: 
                83:68:26:16:4A:C3:88:0A:A6:48:43:98:E7:2D:4F:5F:70:8C:62:B2
            Netscape Comment: 
                Puppet Server Internal Certificate
            X509v3 Authority Key Identifier: 
                83:68:26:16:4A:C3:88:0A:A6:48:43:98:E7:2D:4F:5F:70:8C:62:B2
    Signature Algorithm: sha256WithRSAEncryption
    Signature Value:
        f2:d5:76:aa:ff:05:b2:63:2d:81:23:3d:d5:dc:8f:a8:eb:bc:
        17:35:7f:64:1a:37:50:02:ac:54:4b:c9:74:fb:07:f8:ec:f7:
        c2:6a:80:bd:f7:d1:43:1b:4d:d1:2c:c2:71:d9:28:46:01:0f:
        14:ab:8e:20:14:93:e7:dc:a7:b1:6d:4a:7d:a9:f7:a2:5d:ea:
        4d:89:5f:fb:45:4b:98:c8:93:12:d9:74:5e:a4:3e:25:13:2c:
        92:96:3e:15:c6:d3:46:c7:03:5c:4b:70:65:9e:1f:89:ef:7e:
        70:63:3c:78:d8:a2:92:53:2d:39:a3:f5:0d:36:aa:2a:7b:a8:
        a9:63:66:39:e3:49:55:0f:45:d6:14:9e:f4:77:18:16:90:13:
        41:6a:27:8f:84:c9:c5:0d:ad:cc:d9:bf:62:90:02:56:63:76:
        76:bc:3f:36:5d:41:ad:07:5e:f9:e2:66:e9:63:e3:ba:79:b9:
        07:b6:e8:b5:27:0f:18:4e:a4:6d:82:d7:e9:a9:40:ce:eb:d9:
        6a:b8:d6:04:c4:b2:62:1f:c5:cb:fe:14:f3:c5:cd:0e:11:32:
        b5:cf:ea:fc:98:3c:59:23:eb:69:c5:0b:f6:83:5b:dc:25:9c:
        6d:93:29:c2:30:58:c1:10:80:49:86:67:09:fd:22:67:01:e5:
        32:9a:a3:83
-----BEGIN CERTIFICATE-----
MIIDNDCCAhygAwIBAgIBDDANBgkqhkiG9w0BAQsFADASMRAwDgYDVQQDDAdUZXN0
IENBMB4XDTcwMDEwMTAwMDAwMFoXDTMzMDYyNDIxMTgwMFowEjEQMA4GA1UEAwwH
VGVzdCBDQTCCASIwDQYJKoZIhvcNAQEBBQADggEPADCCAQoCggEBAPSaPtkr4R7q
PIV9J4f191DGYPB5O4Yjzsm6QiIbYRq8M8fP4laPbIQ+TtBItSd+e0neK12ynOZJ
U1LIiZLL4WwwZ8Z0JeM/ejfvVLS9gAem23dcj1btGxSvKhL1RIgVo2Py+UT7Ue2a
bZzPSGn20MlsV+4bvgSRs60W7cjQv7RVa+k8K4xXGbzxdm+QjeRgeccD452DQuwO
eXg8MMTVh2NNLBetxuo7/+RzGhK77dP2nZ3Z5wV/IWwnCifFbshTbKO7DhH6xKuX
j6H9vfNe+4AdFYfHtCCU/MusBqiusYCgXVBojUljG7J3omuBIbZYOvI9Iaylkbx9
Nkb0h+rOow8CAwEAAaOBlDCBkTAMBgNVHRMBAf8EAjAAMA4GA1UdDwEB/wQEAwIB
BjAdBgNVHQ4EFgQUg2gmFkrDiAqmSEOY5y1PX3CMYrIwMQYJYIZIAYb4QgENBCQW
IlB1cHBldCBTZXJ2ZXIgSW50ZXJuYWwgQ2VydGlmaWNhdGUwHwYDVR0jBBgwFoAU
g2gmFkrDiAqmSEOY5y1PX3CMYrIwDQYJKoZIhvcNAQELBQADggEBAPLVdqr/BbJj
LYEjPdXcj6jrvBc1f2QaN1ACrFRLyXT7B/js98JqgL330UMbTdEswnHZKEYBDxSr
jiAUk+fcp7FtSn2p96Jd6k2JX/tFS5jIkxLZdF6kPiUTLJKWPhXG00bHA1xLcGWe
H4nvfnBjPHjYopJTLTmj9Q02qip7qKljZjnjSVUPRdYUnvR3GBaQE0FqJ4+EycUN
rczZv2KQAlZjdna8PzZdQa0HXvniZulj47p5uQe26LUnDxhOpG2C1+mpQM7r2Wq4
1gTEsmIfxcv+FPPFzQ4RMrXP6vyYPFkj62nFC/aDW9wlnG2TKcIwWMEQgEmGZwn9
ImcB5TKao4M=
-----END CERTIFICATE-----
