Certificate:
    Data:
        Version: 3 (0x2)
        Serial Number: 3 (0x3)
        Signature Algorithm: sha256WithRSAEncryption
        Issuer: CN=Test CA
        Validity
            Not Before: Jan  1 00:00:00 1970 GMT
            Not After : Jun 15 01:19:37 2031 GMT
        Subject: CN=Test CA Subauthority
        Subject Public Key Info:
            Public Key Algorithm: rsaEncryption
                RSA Public-Key: (2048 bit)
                Modulus:
                    00:af:36:20:41:45:0b:d1:13:0c:82:fd:b8:e5:ea:
                    f8:32:6b:5e:f7:a5:1c:7d:21:24:cb:85:bf:cd:f5:
                    ca:48:85:39:c1:42:a4:65:93:d2:a2:04:f9:c9:19:
                    10:da:64:0d:be:e3:d0:a5:d3:85:17:79:aa:18:32:
                    f7:0a:b9:8e:08:de:d8:97:06:28:99:ac:ed:d1:a6:
                    d4:0a:34:de:3d:33:e3:08:17:c2:22:6c:1d:fc:51:
                    df:98:e6:de:6e:c6:4b:26:f4:87:44:1e:86:b6:44:
                    b2:f3:82:9c:9c:2f:5b:66:bf:27:71:49:53:bf:c9:
                    d2:f5:06:7e:fe:fd:1c:59:ba:aa:a9:05:c8:cb:44:
                    f5:f5:51:7b:80:1c:59:0e:a5:bf:bb:af:f5:96:68:
                    26:ca:52:b6:a8:e3:f6:3f:b9:a0:60:09:67:4a:86:
                    5b:b4:ae:13:d9:39:ca:e0:84:dc:2e:83:51:ce:09:
                    34:36:30:9c:ff:54:32:a6:b6:5b:a6:41:bd:b3:2b:
                    5d:1d:eb:79:45:f4:fb:de:47:56:3c:8d:b1:96:34:
                    2d:ec:9a:66:4c:50:ab:c6:c4:05:3e:8c:27:7c:be:
                    54:53:5e:ae:20:70:15:12:0f:85:ab:be:18:dd:da:
                    f5:33:a5:55:6a:c7:d8:36:89:bb:1c:5d:ce:46:45:
                    ba:7d
                Exponent: 65537 (0x10001)
        X509v3 extensions:
            X509v3 Basic Constraints: critical
                CA:FALSE
            X509v3 Key Usage: critical
                Certificate Sign, CRL Sign
            X509v3 Subject Key Identifier: 
                59:79:27:C1:94:D7:09:B0:B2:1C:23:44:22:E2:25:25:1B:83:5F:34
            Netscape Comment: 
                Puppet Server Internal Certificate
            X509v3 Authority Key Identifier: 
                keyid:B2:EE:24:88:34:99:18:60:81:9E:2A:D3:F4:5A:66:FA:91:F6:E1:C6

    Signature Algorithm: sha256WithRSAEncryption
         8e:52:e6:46:dc:23:4a:6f:09:4a:e5:72:96:90:9c:8c:c0:ff:
         4c:cd:eb:16:a7:8d:fe:56:4a:c4:be:97:50:43:c9:a7:4b:97:
         c1:fe:5f:e0:0c:17:ea:3b:cd:a8:27:03:21:9b:ee:33:eb:23:
         46:e6:fc:e3:80:d4:4a:a2:29:5c:a3:d5:f3:0b:c9:74:41:49:
         45:65:59:48:7f:93:49:5f:d0:20:e7:b1:93:dc:a9:78:ad:b7:
         ef:97:cc:13:ef:29:04:56:c6:bc:10:97:3a:09:5b:fb:34:80:
         a4:64:88:0d:b9:cb:bf:4e:e6:fe:98:bf:dc:e5:00:47:ad:7d:
         74:c6:13:19:a9:d8:9c:1e:1c:60:55:f2:71:02:c9:7d:10:48:
         b8:4e:8d:22:e8:b4:ee:e0:ce:a3:24:f9:33:d0:aa:d6:aa:cb:
         dd:38:8a:bd:05:3f:b2:52:17:80:8c:a4:1a:97:44:19:1b:e5:
         92:d3:b4:9b:58:44:91:dc:67:1d:e1:43:1a:85:1d:da:c3:52:
         45:50:01:6c:f9:e2:64:a1:e9:2f:d6:88:20:fd:d0:8b:e4:c8:
         76:50:f2:79:bf:6f:ad:8f:11:e5:81:3b:53:da:39:9e:d4:d7:
         6c:f8:7c:36:ed:76:8c:b0:ca:86:a8:1d:01:d9:25:92:54:ae:
         a9:dc:b2:73
-----BEGIN CERTIFICATE-----
MIIDQTCCAimgAwIBAgIBAzANBgkqhkiG9w0BAQsFADASMRAwDgYDVQQDDAdUZXN0
IENBMB4XDTcwMDEwMTAwMDAwMFoXDTMxMDYxNTAxMTkzN1owHzEdMBsGA1UEAwwU
VGVzdCBDQSBTdWJhdXRob3JpdHkwggEiMA0GCSqGSIb3DQEBAQUAA4IBDwAwggEK
AoIBAQCvNiBBRQvREwyC/bjl6vgya173pRx9ISTLhb/N9cpIhTnBQqRlk9KiBPnJ
GRDaZA2+49Cl04UXeaoYMvcKuY4I3tiXBiiZrO3RptQKNN49M+MIF8IibB38Ud+Y
5t5uxksm9IdEHoa2RLLzgpycL1tmvydxSVO/ydL1Bn7+/RxZuqqpBcjLRPX1UXuA
HFkOpb+7r/WWaCbKUrao4/Y/uaBgCWdKhlu0rhPZOcrghNwug1HOCTQ2MJz/VDKm
tlumQb2zK10d63lF9PveR1Y8jbGWNC3smmZMUKvGxAU+jCd8vlRTXq4gcBUSD4Wr
vhjd2vUzpVVqx9g2ibscXc5GRbp9AgMBAAGjgZQwgZEwDAYDVR0TAQH/BAIwADAO
BgNVHQ8BAf8EBAMCAQYwHQYDVR0OBBYEFFl5J8GU1wmwshwjRCLiJSUbg180MDEG
CWCGSAGG+EIBDQQkFiJQdXBwZXQgU2VydmVyIEludGVybmFsIENlcnRpZmljYXRl
MB8GA1UdIwQYMBaAFLLuJIg0mRhggZ4q0/RaZvqR9uHGMA0GCSqGSIb3DQEBCwUA
A4IBAQCOUuZG3CNKbwlK5XKWkJyMwP9MzesWp43+VkrEvpdQQ8mnS5fB/l/gDBfq
O82oJwMhm+4z6yNG5vzjgNRKoilco9XzC8l0QUlFZVlIf5NJX9Ag57GT3Kl4rbfv
l8wT7ykEVsa8EJc6CVv7NICkZIgNucu/Tub+mL/c5QBHrX10xhMZqdicHhxgVfJx
Asl9EEi4To0i6LTu4M6jJPkz0KrWqsvdOIq9BT+yUheAjKQal0QZG+WS07SbWESR
3Gcd4UMahR3aw1JFUAFs+eJkoekv1ogg/dCL5Mh2UPJ5v2+tjxHlgTtT2jme1Nds
+Hw27XaMsMqGqB0B2SWSVK6p3LJz
-----END CERTIFICATE-----
