Certificate:
    Data:
        Version: 3 (0x2)
        Serial Number: 11 (0xb)
        Signature Algorithm: sha256WithRSAEncryption
        Issuer: CN=Test CA
        Validity
            Not Before: Jan  1 00:00:00 1970 GMT
            Not After : Jun 15 01:19:37 2031 GMT
        Subject: CN=Test CA
        Subject Public Key Info:
            Public Key Algorithm: rsaEncryption
                RSA Public-Key: (2048 bit)
                Modulus:
                    00:b0:eb:f6:b5:c4:28:a8:18:53:85:91:20:76:5d:
                    aa:be:78:ae:10:60:d3:b5:66:f7:41:c8:bf:42:00:
                    c8:99:63:ed:d0:92:12:5a:71:c0:da:d2:fd:b3:65:
                    3b:a5:fa:be:0d:e5:2a:20:2f:df:a1:c5:41:c3:c3:
                    9c:04:eb:07:6c:8d:48:9c:14:be:24:81:7d:03:4d:
                    56:62:80:6b:34:e0:ad:68:f0:17:3d:fa:3b:b4:f7:
                    a9:a3:fb:7d:30:0d:dd:c5:0b:b6:32:b6:c2:d9:b1:
                    e8:97:ce:19:66:89:1b:5d:d6:4a:d9:0e:a6:b2:ad:
                    cc:57:e9:0a:12:83:98:a3:18:90:a3:ae:ec:8e:a1:
                    96:ee:a4:36:7b:13:c4:95:45:02:69:89:f4:d3:49:
                    17:e6:e4:d5:91:23:24:7e:94:52:b5:4f:f3:0b:11:
                    d8:b2:69:7e:72:25:88:03:15:7b:2f:64:ca:8c:a9:
                    ce:b0:ed:eb:00:aa:68:af:cd:e4:1c:13:af:a7:ff:
                    54:b6:7d:be:b5:6c:bd:6a:20:be:47:2f:a8:dd:7a:
                    1d:2a:44:a4:0b:15:eb:68:85:05:32:17:01:cf:a7:
                    27:03:cb:85:12:c1:ec:4f:c1:4b:2a:11:34:55:7c:
                    b3:6c:fa:79:6d:4f:be:31:92:b8:f3:01:90:8e:42:
                    6b:71
                Exponent: 65537 (0x10001)
        X509v3 extensions:
            X509v3 Basic Constraints: critical
                CA:FALSE
            X509v3 Key Usage: critical
                Certificate Sign, CRL Sign
            X509v3 Subject Key Identifier: 
                B2:EE:24:88:34:99:18:60:81:9E:2A:D3:F4:5A:66:FA:91:F6:E1:C6
            Netscape Comment: 
                Puppet Server Internal Certificate
            X509v3 Authority Key Identifier: 
                keyid:B2:EE:24:88:34:99:18:60:81:9E:2A:D3:F4:5A:66:FA:91:F6:E1:C6

    Signature Algorithm: sha256WithRSAEncryption
         82:de:f4:cb:97:76:b0:a7:52:71:6c:94:4c:e6:8d:d6:e5:32:
         1d:ca:99:44:9c:a2:b5:e4:a5:ba:06:08:6b:e7:b5:55:76:02:
         7e:ee:69:6a:0d:27:69:7b:e3:80:97:10:9c:40:98:13:e4:d1:
         40:b6:e6:59:1d:c2:1c:6e:64:ba:b5:af:7b:aa:70:d7:34:1b:
         d3:cb:9f:2b:c0:72:36:70:ad:04:a0:07:9c:dd:e5:fa:02:b3:
         c9:f1:f0:6a:99:89:95:20:e2:31:7f:21:2e:8b:b8:76:5e:31:
         82:ec:4b:31:43:e7:20:d9:97:0f:52:8e:26:1d:0b:31:2d:f6:
         74:40:6b:09:cf:39:e8:d9:c8:27:ed:9d:76:a5:b2:2a:83:db:
         16:8e:5f:ee:e7:90:44:68:34:92:33:bd:39:7c:96:8f:e3:61:
         78:b5:4e:59:d8:12:0a:0d:90:17:22:7c:0e:34:bb:ad:94:66:
         07:d5:4f:d9:79:34:6f:12:c1:77:69:a1:20:ae:cc:b0:2e:e9:
         9c:bb:94:89:70:ee:d0:14:1c:05:89:40:76:bb:47:64:83:24:
         73:95:cc:f1:65:ee:f8:bf:55:f0:c3:e6:34:6b:07:09:67:3e:
         03:01:8d:ba:cb:5d:5b:89:d6:e3:cb:ce:55:dc:ad:8d:7f:de:
         c6:5a:7c:9f
-----BEGIN CERTIFICATE-----
MIIDNDCCAhygAwIBAgIBCzANBgkqhkiG9w0BAQsFADASMRAwDgYDVQQDDAdUZXN0
IENBMB4XDTcwMDEwMTAwMDAwMFoXDTMxMDYxNTAxMTkzN1owEjEQMA4GA1UEAwwH
VGVzdCBDQTCCASIwDQYJKoZIhvcNAQEBBQADggEPADCCAQoCggEBALDr9rXEKKgY
U4WRIHZdqr54rhBg07Vm90HIv0IAyJlj7dCSElpxwNrS/bNlO6X6vg3lKiAv36HF
QcPDnATrB2yNSJwUviSBfQNNVmKAazTgrWjwFz36O7T3qaP7fTAN3cULtjK2wtmx
6JfOGWaJG13WStkOprKtzFfpChKDmKMYkKOu7I6hlu6kNnsTxJVFAmmJ9NNJF+bk
1ZEjJH6UUrVP8wsR2LJpfnIliAMVey9kyoypzrDt6wCqaK/N5BwTr6f/VLZ9vrVs
vWogvkcvqN16HSpEpAsV62iFBTIXAc+nJwPLhRLB7E/BSyoRNFV8s2z6eW1PvjGS
uPMBkI5Ca3ECAwEAAaOBlDCBkTAMBgNVHRMBAf8EAjAAMA4GA1UdDwEB/wQEAwIB
BjAdBgNVHQ4EFgQUsu4kiDSZGGCBnirT9Fpm+pH24cYwMQYJYIZIAYb4QgENBCQW
IlB1cHBldCBTZXJ2ZXIgSW50ZXJuYWwgQ2VydGlmaWNhdGUwHwYDVR0jBBgwFoAU
su4kiDSZGGCBnirT9Fpm+pH24cYwDQYJKoZIhvcNAQELBQADggEBAILe9MuXdrCn
UnFslEzmjdblMh3KmUScorXkpboGCGvntVV2An7uaWoNJ2l744CXEJxAmBPk0UC2
5lkdwhxuZLq1r3uqcNc0G9PLnyvAcjZwrQSgB5zd5foCs8nx8GqZiZUg4jF/IS6L
uHZeMYLsSzFD5yDZlw9SjiYdCzEt9nRAawnPOejZyCftnXalsiqD2xaOX+7nkERo
NJIzvTl8lo/jYXi1TlnYEgoNkBcifA40u62UZgfVT9l5NG8SwXdpoSCuzLAu6Zy7
lIlw7tAUHAWJQHa7R2SDJHOVzPFl7vi/VfDD5jRrBwlnPgMBjbrLXVuJ1uPLzlXc
rY1/3sZafJ8=
-----END CERTIFICATE-----
