Certificate:
    Data:
        Version: 3 (0x2)
        Serial Number: 1 (0x1)
    Signature Algorithm: sha256WithRSAEncryption
        Issuer: CN=Test CA
        Validity
            Not Before: Jan  1 00:00:00 1970 GMT
            Not After : Mar  9 21:35:53 2029 GMT
        Subject: CN=Test CA Subauthority
        Subject Public Key Info:
            Public Key Algorithm: rsaEncryption
                Public-Key: (1024 bit)
                Modulus:
                    00:e3:9e:d9:d2:f3:61:04:11:b7:41:5e:1f:4e:be:
                    2f:27:e2:79:95:8a:15:e5:1e:31:3e:15:d9:73:7b:
                    b5:af:3f:53:25:fd:2d:ed:d4:ef:15:b6:de:8c:34:
                    28:3e:e8:14:86:9b:06:a8:8f:c5:c2:cf:ce:31:c1:
                    40:4d:24:7b:4c:17:4b:9d:19:6c:57:66:a2:25:ba:
                    26:d2:14:37:32:17:15:0c:51:2e:9d:7e:01:6a:f7:
                    a1:3c:c9:b7:bb:00:79:82:f0:a9:c3:6f:58:a7:68:
                    75:53:b2:fa:33:98:28:53:2e:99:d2:fb:73:63:09:
                    51:32:df:0f:58:ee:ba:6a:19
                Exponent: 65537 (0x10001)
        X509v3 extensions:
            X509v3 Basic Constraints: critical
                CA:FALSE
            X509v3 Key Usage: critical
                Certificate Sign, CRL Sign
            X509v3 Subject Key Identifier: 
                7A:E0:53:6E:4C:00:F4:DE:3D:74:3A:37:BA:CD:25:7A:C2:BC:44:0A
            Netscape Comment: 
                Puppet Server Internal Certificate
            X509v3 Authority Key Identifier: 
                keyid:93:70:43:DA:C0:AA:14:71:0F:93:EB:82:E7:F5:AE:C9:D2:1A:78:77

    Signature Algorithm: sha256WithRSAEncryption
         49:f9:91:6e:e7:62:aa:f7:50:89:4e:d7:c8:b9:dd:5f:35:13:
         1f:d8:d6:42:06:b0:71:48:47:35:77:5b:61:87:df:e3:61:45:
         63:9d:64:14:25:d6:64:0c:9c:d0:20:97:e5:86:f8:41:ac:3c:
         bf:a9:65:31:e7:f0:6b:19:97:6b:a2:e9:fb:e5:4a:57:90:08:
         f5:33:5e:08:f6:1f:76:f2:7f:5d:f3:44:8f:33:5b:91:7a:f2:
         80:c5:68:7b:2d:c6:c2:6e:1f:51:79:f4:06:ed:f9:c9:95:88:
         41:e7:8a:eb:41:fa:7c:b4:d3:a6:42:c4:92:bf:e0:dd:89:00:
         c6:6a
-----BEGIN CERTIFICATE-----
MIICPDCCAaWgAwIBAgIBATANBgkqhkiG9w0BAQsFADASMRAwDgYDVQQDDAdUZXN0
IENBMB4XDTcwMDEwMTAwMDAwMFoXDTI5MDMwOTIxMzU1M1owHzEdMBsGA1UEAwwU
VGVzdCBDQSBTdWJhdXRob3JpdHkwgZ8wDQYJKoZIhvcNAQEBBQADgY0AMIGJAoGB
AOOe2dLzYQQRt0FeH06+LyfieZWKFeUeMT4V2XN7ta8/UyX9Le3U7xW23ow0KD7o
FIabBqiPxcLPzjHBQE0ke0wXS50ZbFdmoiW6JtIUNzIXFQxRLp1+AWr3oTzJt7sA
eYLwqcNvWKdodVOy+jOYKFMumdL7c2MJUTLfD1juumoZAgMBAAGjgZQwgZEwDAYD
VR0TAQH/BAIwADAOBgNVHQ8BAf8EBAMCAQYwHQYDVR0OBBYEFHrgU25MAPTePXQ6
N7rNJXrCvEQKMDEGCWCGSAGG+EIBDQQkFiJQdXBwZXQgU2VydmVyIEludGVybmFs
IENlcnRpZmljYXRlMB8GA1UdIwQYMBaAFJNwQ9rAqhRxD5Prguf1rsnSGnh3MA0G
CSqGSIb3DQEBCwUAA4GBAEn5kW7nYqr3UIlO18i53V81Ex/Y1kIGsHFIRzV3W2GH
3+NhRWOdZBQl1mQMnNAgl+WG+EGsPL+pZTHn8GsZl2ui6fvlSleQCPUzXgj2H3by
f13zRI8zW5F68oDFaHstxsJuH1F59Abt+cmViEHniutB+ny006ZCxJK/4N2JAMZq
-----END CERTIFICATE-----
