Certificate:
    Data:
        Version: 3 (0x2)
        Serial Number: 3 (0x3)
        Signature Algorithm: sha256WithRSAEncryption
        Issuer: CN=Test CA
        Validity
            Not Before: Jan  1 00:00:00 1970 GMT
            Not After : Apr 18 18:46:23 2031 GMT
        Subject: CN=Test CA Subauthority
        Subject Public Key Info:
            Public Key Algorithm: rsaEncryption
                RSA Public-Key: (2048 bit)
                Modulus:
                    00:cd:ef:ef:31:c5:33:69:3b:ee:25:06:b9:73:a7:
                    09:e5:c9:9c:0b:39:48:26:fb:88:26:50:2d:8a:52:
                    29:86:df:7a:12:f0:08:ea:61:52:80:98:9f:a5:45:
                    26:ad:6d:05:e6:b5:81:e5:91:b3:6b:98:53:09:0a:
                    e9:05:4b:29:de:3c:64:44:a7:d2:5d:3f:fc:5f:f8:
                    29:1f:b0:40:e2:74:8a:26:fd:e8:d7:74:a5:78:de:
                    bf:23:10:73:74:8d:1b:0c:4b:d7:1d:a9:ae:86:14:
                    05:63:7c:2a:00:38:d6:57:8a:b7:a8:45:80:27:f5:
                    71:0b:fa:e2:bd:a2:d1:08:8d:fa:cd:9c:f6:ad:89:
                    76:ea:ab:1c:78:f9:26:5b:a3:18:2a:f7:90:15:ed:
                    a7:db:50:e9:7d:55:99:7e:05:10:ca:56:11:51:5e:
                    de:8c:e2:be:2a:8a:34:41:1d:1d:23:92:04:50:05:
                    c5:5b:b8:7a:45:90:ee:0d:7f:01:b1:ed:d4:dd:c5:
                    28:ed:7d:4d:6a:70:21:3b:95:5e:e2:31:d7:17:bd:
                    5b:af:e4:ce:ad:6b:9f:5f:9e:e1:1e:86:ff:83:c1:
                    88:ec:87:bb:bf:a1:26:22:75:b9:57:31:10:fd:a5:
                    ca:82:70:6d:c8:a1:a3:f6:3e:76:3d:2e:cd:07:f9:
                    7b:3f
                Exponent: 65537 (0x10001)
        X509v3 extensions:
            X509v3 Basic Constraints: critical
                CA:FALSE
            X509v3 Key Usage: critical
                Certificate Sign, CRL Sign
            X509v3 Subject Key Identifier: 
                9A:15:19:07:A0:54:8D:C3:9D:4F:07:C4:05:A1:85:AC:92:D8:B1:E5
            Netscape Comment: 
                Puppet Server Internal Certificate
            X509v3 Authority Key Identifier: 
                keyid:61:DF:EE:CE:DA:49:6B:5E:F3:EF:94:FE:F9:DC:C7:C0:5A:74:FE:DB

    Signature Algorithm: sha256WithRSAEncryption
         d7:3a:0b:c1:06:57:c2:6c:f8:4e:79:c6:f9:0e:9c:a6:64:cc:
         7b:c8:a5:7a:93:aa:d6:f5:e7:51:9a:26:6f:6c:b5:48:37:39:
         ba:4b:6c:f8:d6:95:2d:db:e0:44:bd:f6:c9:a1:36:7a:12:0a:
         b2:77:7b:84:c8:14:68:1e:c2:04:29:b5:83:3b:cf:29:dc:6b:
         27:b3:ae:a3:24:aa:3b:0c:4c:4b:c0:7d:52:6d:5c:2c:d0:5d:
         06:af:89:9a:0c:0f:2e:df:53:ae:82:23:36:e3:1a:cb:49:46:
         e2:77:a1:3e:55:1c:81:f5:8e:c8:f2:da:8c:22:14:e6:84:47:
         e9:56:8e:7a:c7:c4:54:e0:f1:f5:2f:00:c4:ad:e1:ff:ba:cb:
         5e:66:22:f2:71:db:0e:31:22:5b:5e:ad:63:6e:bf:52:c9:4d:
         91:cc:29:5d:b8:b3:d4:b0:a7:17:9b:bd:87:9b:09:ef:a2:68:
         24:b2:1d:62:0a:f3:d6:15:7b:ba:26:7e:ca:e2:df:ac:4c:f9:
         70:76:fc:fb:39:bf:d3:a8:21:19:2d:6d:a6:71:6f:e5:0f:c8:
         9c:97:b0:5f:2c:85:d2:1f:b4:27:28:54:6f:30:f4:66:8a:bf:
         cc:09:5c:0d:19:85:b6:04:8c:7c:03:a4:fc:a3:80:dc:1c:5b:
         61:6d:12:0a
-----BEGIN CERTIFICATE-----
MIIDQTCCAimgAwIBAgIBAzANBgkqhkiG9w0BAQsFADASMRAwDgYDVQQDDAdUZXN0
IENBMB4XDTcwMDEwMTAwMDAwMFoXDTMxMDQxODE4NDYyM1owHzEdMBsGA1UEAwwU
VGVzdCBDQSBTdWJhdXRob3JpdHkwggEiMA0GCSqGSIb3DQEBAQUAA4IBDwAwggEK
AoIBAQDN7+8xxTNpO+4lBrlzpwnlyZwLOUgm+4gmUC2KUimG33oS8AjqYVKAmJ+l
RSatbQXmtYHlkbNrmFMJCukFSynePGREp9JdP/xf+CkfsEDidIom/ejXdKV43r8j
EHN0jRsMS9cdqa6GFAVjfCoAONZXireoRYAn9XEL+uK9otEIjfrNnPatiXbqqxx4
+SZboxgq95AV7afbUOl9VZl+BRDKVhFRXt6M4r4qijRBHR0jkgRQBcVbuHpFkO4N
fwGx7dTdxSjtfU1qcCE7lV7iMdcXvVuv5M6ta59fnuEehv+DwYjsh7u/oSYidblX
MRD9pcqCcG3IoaP2PnY9Ls0H+Xs/AgMBAAGjgZQwgZEwDAYDVR0TAQH/BAIwADAO
BgNVHQ8BAf8EBAMCAQYwHQYDVR0OBBYEFJoVGQegVI3DnU8HxAWhhayS2LHlMDEG
CWCGSAGG+EIBDQQkFiJQdXBwZXQgU2VydmVyIEludGVybmFsIENlcnRpZmljYXRl
MB8GA1UdIwQYMBaAFGHf7s7aSWte8++U/vncx8BadP7bMA0GCSqGSIb3DQEBCwUA
A4IBAQDXOgvBBlfCbPhOecb5DpymZMx7yKV6k6rW9edRmiZvbLVINzm6S2z41pUt
2+BEvfbJoTZ6Egqyd3uEyBRoHsIEKbWDO88p3Gsns66jJKo7DExLwH1SbVws0F0G
r4maDA8u31OugiM24xrLSUbid6E+VRyB9Y7I8tqMIhTmhEfpVo56x8RU4PH1LwDE
reH/usteZiLycdsOMSJbXq1jbr9SyU2RzClduLPUsKcXm72Hmwnvomgksh1iCvPW
FXu6Jn7K4t+sTPlwdvz7Ob/TqCEZLW2mcW/lD8icl7BfLIXSH7QnKFRvMPRmir/M
CVwNGYW2BIx8A6T8o4DcHFthbRIK
-----END CERTIFICATE-----
