Certificate:
    Data:
        Version: 3 (0x2)
        Serial Number: 12 (0xc)
        Signature Algorithm: sha256WithRSAEncryption
        Issuer: CN=Test CA
        Validity
            Not Before: Jan  1 00:00:00 1970 GMT
            Not After : Jan 27 18:43:32 2034 GMT
        Subject: CN=Test CA
        Subject Public Key Info:
            Public Key Algorithm: rsaEncryption
                RSA Public-Key: (2048 bit)
                Modulus:
                    00:bf:58:f9:d6:80:6e:15:94:3c:42:eb:4c:9a:74:
                    a6:70:16:0e:31:aa:3b:94:06:d9:28:5e:21:5b:da:
                    fc:b7:cc:3e:06:fb:f9:fe:4c:84:dd:d1:b0:a3:1a:
                    68:20:99:2e:28:02:59:dc:03:12:5c:21:8b:2a:0b:
                    92:8f:87:61:d0:2c:bd:4b:84:84:c2:e8:4b:cf:09:
                    28:86:65:89:9d:f5:85:70:a0:58:29:aa:bd:f5:3d:
                    b0:fe:98:5d:f2:50:f3:f1:1f:94:d5:f8:ff:25:92:
                    14:a4:81:19:bc:1a:03:5b:b3:1b:ea:7b:9c:99:9a:
                    f4:3f:2a:a5:96:b0:07:96:48:79:b0:52:d4:fc:f2:
                    51:62:94:fa:b0:69:b8:86:11:ab:b8:02:4d:93:e5:
                    2b:01:50:ef:fa:06:f6:91:4d:56:58:a3:11:f3:0f:
                    16:87:de:42:0a:53:b0:07:73:07:6d:ed:cf:91:52:
                    2b:b4:e8:93:7e:57:aa:39:a4:47:1f:f6:ff:7d:8f:
                    73:16:b3:2e:cb:4c:5f:40:c0:0c:02:2c:c8:6c:1b:
                    8c:ec:54:d9:e1:60:98:de:77:e7:ee:a9:95:80:83:
                    39:de:44:c2:83:d6:46:a2:f7:ac:63:6e:f5:b8:30:
                    c2:5c:63:8f:0a:47:3a:6f:be:ef:3e:21:0a:52:69:
                    8f:35
                Exponent: 65537 (0x10001)
        X509v3 extensions:
            X509v3 Basic Constraints: critical
                CA:FALSE
            X509v3 Key Usage: critical
                Certificate Sign, CRL Sign
            X509v3 Subject Key Identifier: 
                58:D3:6E:35:36:97:04:91:6A:B6:DF:45:80:9A:53:B3:E4:36:C8:3D
            Netscape Comment: 
                Puppet Server Internal Certificate
            X509v3 Authority Key Identifier: 
                keyid:58:D3:6E:35:36:97:04:91:6A:B6:DF:45:80:9A:53:B3:E4:36:C8:3D

    Signature Algorithm: sha256WithRSAEncryption
         18:57:51:5d:eb:63:93:8d:25:5b:5d:8e:5c:67:b0:d2:c6:71:
         63:82:73:2e:d0:14:32:28:f3:cc:27:13:bc:4c:55:66:6b:28:
         78:b8:cb:5e:f8:95:29:9a:78:55:59:3e:e4:de:d1:ae:f0:68:
         7e:bc:ff:32:d2:54:85:b2:eb:0c:4d:99:6a:28:a5:d8:a3:6e:
         8a:71:86:70:fd:3e:36:2b:ad:fc:29:f9:de:c5:1f:d7:4c:66:
         9d:4b:bc:ee:4d:95:60:a4:3a:ce:75:7c:5e:3b:42:f5:21:18:
         42:43:f4:15:62:7a:c9:7f:3b:a1:dc:38:e5:f2:12:db:62:b6:
         22:91:b6:06:90:e8:26:2a:c6:3e:2e:80:9d:c2:fe:1d:67:b6:
         72:2b:37:aa:4a:1d:19:bb:74:80:0b:c8:bc:c1:d3:3c:51:34:
         1c:30:0b:65:86:e9:96:38:01:b2:d7:ad:8f:37:eb:54:1a:83:
         2a:ee:fb:e8:e3:fb:eb:c2:df:27:df:49:34:64:bb:8a:d9:f3:
         35:58:f7:b6:81:d8:df:21:30:bd:6d:af:6e:b2:89:4a:1a:3f:
         56:3c:e4:24:94:4b:f3:1f:2b:e6:06:78:f1:34:68:cd:c5:c1:
         5f:23:da:c6:c9:95:82:a5:eb:3f:d2:d3:58:03:4b:df:63:13:
         00:be:86:00
-----BEGIN CERTIFICATE-----
MIIDNDCCAhygAwIBAgIBDDANBgkqhkiG9w0BAQsFADASMRAwDgYDVQQDDAdUZXN0
IENBMB4XDTcwMDEwMTAwMDAwMFoXDTM0MDEyNzE4NDMzMlowEjEQMA4GA1UEAwwH
VGVzdCBDQTCCASIwDQYJKoZIhvcNAQEBBQADggEPADCCAQoCggEBAL9Y+daAbhWU
PELrTJp0pnAWDjGqO5QG2SheIVva/LfMPgb7+f5MhN3RsKMaaCCZLigCWdwDElwh
iyoLko+HYdAsvUuEhMLoS88JKIZliZ31hXCgWCmqvfU9sP6YXfJQ8/EflNX4/yWS
FKSBGbwaA1uzG+p7nJma9D8qpZawB5ZIebBS1PzyUWKU+rBpuIYRq7gCTZPlKwFQ
7/oG9pFNVlijEfMPFofeQgpTsAdzB23tz5FSK7Tok35XqjmkRx/2/32PcxazLstM
X0DADAIsyGwbjOxU2eFgmN535+6plYCDOd5EwoPWRqL3rGNu9bgwwlxjjwpHOm++
7z4hClJpjzUCAwEAAaOBlDCBkTAMBgNVHRMBAf8EAjAAMA4GA1UdDwEB/wQEAwIB
BjAdBgNVHQ4EFgQUWNNuNTaXBJFqtt9FgJpTs+Q2yD0wMQYJYIZIAYb4QgENBCQW
IlB1cHBldCBTZXJ2ZXIgSW50ZXJuYWwgQ2VydGlmaWNhdGUwHwYDVR0jBBgwFoAU
WNNuNTaXBJFqtt9FgJpTs+Q2yD0wDQYJKoZIhvcNAQELBQADggEBABhXUV3rY5ON
JVtdjlxnsNLGcWOCcy7QFDIo88wnE7xMVWZrKHi4y174lSmaeFVZPuTe0a7waH68
/zLSVIWy6wxNmWoopdijbopxhnD9PjYrrfwp+d7FH9dMZp1LvO5NlWCkOs51fF47
QvUhGEJD9BViesl/O6HcOOXyEttitiKRtgaQ6CYqxj4ugJ3C/h1ntnIrN6pKHRm7
dIALyLzB0zxRNBwwC2WG6ZY4AbLXrY8361Qagyru++jj++vC3yffSTRku4rZ8zVY
97aB2N8hML1tr26yiUoaP1Y85CSUS/MfK+YGePE0aM3FwV8j2sbJlYKl6z/S01gD
S99jEwC+hgA=
-----END CERTIFICATE-----
