Certificate:
    Data:
        Version: 3 (0x2)
        Serial Number: 3 (0x3)
        Signature Algorithm: sha256WithRSAEncryption
        Issuer: CN=Test CA
        Validity
            Not Before: Jan  1 00:00:00 1970 GMT
            Not After : Jan 27 18:43:32 2034 GMT
        Subject: CN=Test CA Subauthority
        Subject Public Key Info:
            Public Key Algorithm: rsaEncryption
                RSA Public-Key: (2048 bit)
                Modulus:
                    00:a4:f1:74:f2:db:24:84:39:da:26:5c:72:c8:2e:
                    a6:3e:57:88:90:ab:41:04:7a:7a:f3:af:f7:43:b7:
                    9b:d8:57:91:7e:15:d5:aa:cb:8d:d4:a5:de:54:4a:
                    22:bb:e3:6f:1a:03:7f:27:42:8a:db:45:ee:79:0e:
                    dd:c0:08:fc:f3:48:9e:ea:99:f9:08:cd:38:86:2d:
                    ca:2c:9b:d0:02:f2:81:29:72:a1:aa:a3:ea:fc:5f:
                    4a:a1:15:68:55:a9:ed:7d:3a:23:84:0c:0a:d8:10:
                    c7:0b:8c:b3:93:9a:61:55:10:73:34:14:21:de:28:
                    65:bf:6a:d3:dd:e8:3d:9e:69:78:1e:72:89:fd:73:
                    7e:75:e7:9b:4c:f2:65:3c:d5:ed:d4:d1:53:96:52:
                    b0:29:c1:e4:9d:5f:d7:62:d0:84:7b:e8:db:85:93:
                    b9:8f:4a:01:c4:6e:6d:e2:a9:6d:ec:51:d7:51:48:
                    fe:f4:83:45:a1:c1:b7:00:68:9c:02:92:a6:20:d4:
                    40:a0:c8:ee:ab:96:40:53:10:f1:b5:2d:a8:f9:50:
                    fe:eb:96:9a:9c:c1:31:2c:1f:70:d5:a7:37:ff:35:
                    1a:ac:d7:fc:9d:4f:e1:67:20:e6:9d:4a:66:c8:ac:
                    e0:0a:f5:4f:d4:43:56:d6:e1:6d:04:f4:ea:02:d5:
                    af:a9
                Exponent: 65537 (0x10001)
        X509v3 extensions:
            X509v3 Basic Constraints: critical
                CA:FALSE
            X509v3 Key Usage: critical
                Certificate Sign, CRL Sign
            X509v3 Subject Key Identifier: 
                EB:EA:7B:15:C9:4E:08:5B:87:27:09:E4:42:10:54:47:72:E9:38:29
            Netscape Comment: 
                Puppet Server Internal Certificate
            X509v3 Authority Key Identifier: 
                keyid:58:D3:6E:35:36:97:04:91:6A:B6:DF:45:80:9A:53:B3:E4:36:C8:3D

    Signature Algorithm: sha256WithRSAEncryption
         9d:ea:1a:42:b5:38:8e:65:0d:a5:83:21:8a:37:21:05:a8:30:
         ea:e9:1b:51:31:21:72:44:8e:b0:2a:78:cc:1b:f0:95:01:c4:
         6c:e1:74:93:cc:cc:2e:36:ba:11:31:a1:61:06:84:d4:03:d5:
         3d:b3:6e:7d:42:da:71:92:01:fd:2c:22:21:ca:47:78:6c:c0:
         ce:ac:bc:79:6d:fb:9c:28:77:6f:57:41:67:dc:0e:a6:8a:f3:
         b1:1c:b9:60:19:36:7d:33:00:64:c0:b1:ea:8a:86:d5:3b:9f:
         1f:39:32:33:77:cb:bf:95:50:79:18:84:2d:12:23:63:cf:78:
         02:3e:1f:44:0c:a7:f5:2a:64:e4:64:7c:79:ba:99:84:f1:7d:
         71:78:3d:70:a2:2b:a0:04:df:f2:9b:5d:ee:c7:08:49:4e:a1:
         fa:39:b3:08:51:a1:22:64:a1:8e:61:44:aa:2f:db:7b:3f:e4:
         77:9c:0a:35:ba:9b:e2:b4:87:92:52:60:fb:bb:01:bc:4a:c4:
         ca:de:70:61:c4:bb:d3:9a:ad:25:47:73:d3:cf:cb:92:3e:ff:
         09:b6:dc:22:32:fc:00:bf:c9:1c:9b:f7:49:6a:89:fb:91:09:
         b4:f1:a2:89:2c:6d:9c:c0:80:1e:10:de:eb:45:93:a8:07:c9:
         a3:2f:c5:5e
-----BEGIN CERTIFICATE-----
MIIDQTCCAimgAwIBAgIBAzANBgkqhkiG9w0BAQsFADASMRAwDgYDVQQDDAdUZXN0
IENBMB4XDTcwMDEwMTAwMDAwMFoXDTM0MDEyNzE4NDMzMlowHzEdMBsGA1UEAwwU
VGVzdCBDQSBTdWJhdXRob3JpdHkwggEiMA0GCSqGSIb3DQEBAQUAA4IBDwAwggEK
AoIBAQCk8XTy2ySEOdomXHLILqY+V4iQq0EEenrzr/dDt5vYV5F+FdWqy43Upd5U
SiK7428aA38nQorbRe55Dt3ACPzzSJ7qmfkIzTiGLcosm9AC8oEpcqGqo+r8X0qh
FWhVqe19OiOEDArYEMcLjLOTmmFVEHM0FCHeKGW/atPd6D2eaXgecon9c35155tM
8mU81e3U0VOWUrApweSdX9di0IR76NuFk7mPSgHEbm3iqW3sUddRSP70g0WhwbcA
aJwCkqYg1ECgyO6rlkBTEPG1Laj5UP7rlpqcwTEsH3DVpzf/NRqs1/ydT+FnIOad
SmbIrOAK9U/UQ1bW4W0E9OoC1a+pAgMBAAGjgZQwgZEwDAYDVR0TAQH/BAIwADAO
BgNVHQ8BAf8EBAMCAQYwHQYDVR0OBBYEFOvqexXJTghbhycJ5EIQVEdy6TgpMDEG
CWCGSAGG+EIBDQQkFiJQdXBwZXQgU2VydmVyIEludGVybmFsIENlcnRpZmljYXRl
MB8GA1UdIwQYMBaAFFjTbjU2lwSRarbfRYCaU7PkNsg9MA0GCSqGSIb3DQEBCwUA
A4IBAQCd6hpCtTiOZQ2lgyGKNyEFqDDq6RtRMSFyRI6wKnjMG/CVAcRs4XSTzMwu
NroRMaFhBoTUA9U9s259QtpxkgH9LCIhykd4bMDOrLx5bfucKHdvV0Fn3A6mivOx
HLlgGTZ9MwBkwLHqiobVO58fOTIzd8u/lVB5GIQtEiNjz3gCPh9EDKf1KmTkZHx5
upmE8X1xeD1woiugBN/ym13uxwhJTqH6ObMIUaEiZKGOYUSqL9t7P+R3nAo1upvi
tIeSUmD7uwG8SsTK3nBhxLvTmq0lR3PTz8uSPv8JttwiMvwAv8kcm/dJaon7kQm0
8aKJLG2cwIAeEN7rRZOoB8mjL8Ve
-----END CERTIFICATE-----
