Certificate:
    Data:
        Version: 3 (0x2)
        Serial Number: 1 (0x1)
    Signature Algorithm: sha256WithRSAEncryption
        Issuer: CN=Test CA
        Validity
            Not Before: Jan  1 00:00:00 1970 GMT
            Not After : Apr 19 22:31:22 2029 GMT
        Subject: CN=Test CA Subauthority
        Subject Public Key Info:
            Public Key Algorithm: rsaEncryption
                Public-Key: (1024 bit)
                Modulus:
                    00:c2:4a:6e:07:c6:1c:8b:2f:bf:91:3e:25:dc:54:
                    2c:02:0f:1b:6f:5b:0e:5a:69:1d:dd:52:3f:8b:f4:
                    c8:56:c6:f3:c5:56:2c:b8:82:67:81:09:7b:0d:6f:
                    01:26:4a:ae:42:53:95:b1:32:ba:07:d4:64:bc:79:
                    1f:16:0a:92:07:e5:af:5d:d6:b3:4d:09:58:b1:8a:
                    ba:2c:c0:d3:9b:95:cc:a1:0d:e5:4d:40:1a:50:2d:
                    a4:45:ff:05:63:62:84:35:73:2c:0f:b3:f6:69:fd:
                    9b:d3:5e:a8:12:f0:c4:a0:77:25:59:e7:81:3d:ee:
                    c5:22:10:75:ac:ad:cc:a4:1f
                Exponent: 65537 (0x10001)
        X509v3 extensions:
            X509v3 Basic Constraints: critical
                CA:FALSE
            X509v3 Key Usage: critical
                Certificate Sign, CRL Sign
            X509v3 Subject Key Identifier: 
                23:78:2F:09:81:B0:7B:C6:79:1F:30:FE:FC:5E:37:14:FF:20:A0:20
            Netscape Comment: 
                Puppet Server Internal Certificate
            X509v3 Authority Key Identifier: 
                keyid:2C:25:19:A1:6C:B3:F7:69:FD:76:9B:3A:22:CB:0C:56:01:01:F1:31

    Signature Algorithm: sha256WithRSAEncryption
         7a:8a:07:aa:d1:4d:7b:5b:01:cf:d3:9f:b0:3f:03:2e:ac:4b:
         31:e8:86:4d:ca:c0:fb:cb:c2:80:73:60:ea:1e:0c:2f:7c:01:
         fc:78:4e:3d:9b:be:16:85:bf:bc:c9:7b:41:9d:de:74:69:82:
         97:b6:e1:e2:37:40:4b:36:ba:ad:fa:bd:c6:73:21:d9:c4:e5:
         96:d6:6a:bf:c9:dc:0a:0e:9e:0b:44:5c:2f:b3:5a:54:75:14:
         2b:53:a8:27:6f:8b:94:c9:27:cc:ed:8b:82:5b:09:b1:db:6d:
         90:78:0a:e8:e2:ac:30:f6:1a:9f:77:4f:70:aa:4f:b7:61:fe:
         49:41
-----BEGIN CERTIFICATE-----
MIICPDCCAaWgAwIBAgIBATANBgkqhkiG9w0BAQsFADASMRAwDgYDVQQDDAdUZXN0
IENBMB4XDTcwMDEwMTAwMDAwMFoXDTI5MDQxOTIyMzEyMlowHzEdMBsGA1UEAwwU
VGVzdCBDQSBTdWJhdXRob3JpdHkwgZ8wDQYJKoZIhvcNAQEBBQADgY0AMIGJAoGB
AMJKbgfGHIsvv5E+JdxULAIPG29bDlppHd1SP4v0yFbG88VWLLiCZ4EJew1vASZK
rkJTlbEyugfUZLx5HxYKkgflr13Ws00JWLGKuizA05uVzKEN5U1AGlAtpEX/BWNi
hDVzLA+z9mn9m9NeqBLwxKB3JVnngT3uxSIQdaytzKQfAgMBAAGjgZQwgZEwDAYD
VR0TAQH/BAIwADAOBgNVHQ8BAf8EBAMCAQYwHQYDVR0OBBYEFCN4LwmBsHvGeR8w
/vxeNxT/IKAgMDEGCWCGSAGG+EIBDQQkFiJQdXBwZXQgU2VydmVyIEludGVybmFs
IENlcnRpZmljYXRlMB8GA1UdIwQYMBaAFCwlGaFss/dp/XabOiLLDFYBAfExMA0G
CSqGSIb3DQEBCwUAA4GBAHqKB6rRTXtbAc/Tn7A/Ay6sSzHohk3KwPvLwoBzYOoe
DC98Afx4Tj2bvhaFv7zJe0Gd3nRpgpe24eI3QEs2uq36vcZzIdnE5ZbWar/J3AoO
ngtEXC+zWlR1FCtTqCdvi5TJJ8zti4JbCbHbbZB4CujirDD2Gp93T3CqT7dh/klB
-----END CERTIFICATE-----
