Certificate:
    Data:
        Version: 3 (0x2)
        Serial Number: 0 (0x0)
    Signature Algorithm: sha256WithRSAEncryption
        Issuer: CN=Test CA
        Validity
            Not Before: Jan  1 00:00:00 1970 GMT
            Not After : Mar  3 20:26:24 2029 GMT
        Subject: CN=Test CA
        Subject Public Key Info:
            Public Key Algorithm: rsaEncryption
                Public-Key: (1024 bit)
                Modulus:
                    00:c9:47:85:44:02:d5:fa:9c:58:e6:ff:d2:f7:d7:
                    64:d0:f6:83:90:85:a0:3b:9d:ae:81:db:9a:80:1e:
                    70:2b:ac:d6:fc:d5:43:f9:89:8d:fe:67:b0:ba:7b:
                    ac:40:7b:6e:6f:87:e7:38:49:3b:e6:82:90:00:10:
                    b1:e9:d4:f1:35:64:d8:49:68:54:fc:8f:67:8d:19:
                    87:b5:d6:de:05:69:1c:f9:42:6c:18:bd:2f:3c:b2:
                    39:5d:7e:12:ef:c7:1e:19:6e:59:70:db:68:96:3d:
                    93:15:7f:4f:ff:e2:43:ae:5f:9a:00:4a:d0:8c:15:
                    3e:38:de:a4:44:c3:4f:37:eb
                Exponent: 65537 (0x10001)
        X509v3 extensions:
            X509v3 Basic Constraints: critical
                CA:TRUE
            X509v3 Key Usage: critical
                Certificate Sign, CRL Sign
            X509v3 Subject Key Identifier: 
                5F:67:9D:DE:33:62:11:B6:CB:E0:7D:8A:5F:27:55:E0:78:C9:E2:F2
            Netscape Comment: 
                Puppet Server Internal Certificate
            X509v3 Authority Key Identifier: 
                keyid:5F:67:9D:DE:33:62:11:B6:CB:E0:7D:8A:5F:27:55:E0:78:C9:E2:F2

    Signature Algorithm: sha256WithRSAEncryption
         a3:52:3b:49:48:dd:b3:d6:de:5e:0b:89:ba:12:ca:88:54:c8:
         b6:f5:0a:67:47:d7:84:b4:07:55:4f:96:57:bf:53:30:dd:41:
         b0:be:5d:ee:0a:b4:6a:8b:85:7e:93:68:cc:c3:85:fe:3d:76:
         7e:b9:d6:c5:c8:49:ce:40:92:e9:a4:0b:f7:ba:a5:db:c4:4e:
         45:0f:ff:72:61:3a:88:1d:65:ad:fd:2a:49:cd:19:4a:0c:e4:
         7a:9a:c1:0b:3b:d8:17:8c:ae:d5:58:31:2e:35:01:c2:e6:82:
         59:f4:02:35:6e:ce:96:85:4f:74:08:e1:b0:72:ef:cf:2c:27:
         e2:42
-----BEGIN CERTIFICATE-----
MIICMjCCAZugAwIBAgIBADANBgkqhkiG9w0BAQsFADASMRAwDgYDVQQDDAdUZXN0
IENBMB4XDTcwMDEwMTAwMDAwMFoXDTI5MDMwMzIwMjYyNFowEjEQMA4GA1UEAwwH
VGVzdCBDQTCBnzANBgkqhkiG9w0BAQEFAAOBjQAwgYkCgYEAyUeFRALV+pxY5v/S
99dk0PaDkIWgO52ugduagB5wK6zW/NVD+YmN/mewunusQHtub4fnOEk75oKQABCx
6dTxNWTYSWhU/I9njRmHtdbeBWkc+UJsGL0vPLI5XX4S78ceGW5ZcNtolj2TFX9P
/+JDrl+aAErQjBU+ON6kRMNPN+sCAwEAAaOBlzCBlDAPBgNVHRMBAf8EBTADAQH/
MA4GA1UdDwEB/wQEAwIBBjAdBgNVHQ4EFgQUX2ed3jNiEbbL4H2KXydV4HjJ4vIw
MQYJYIZIAYb4QgENBCQWIlB1cHBldCBTZXJ2ZXIgSW50ZXJuYWwgQ2VydGlmaWNh
dGUwHwYDVR0jBBgwFoAUX2ed3jNiEbbL4H2KXydV4HjJ4vIwDQYJKoZIhvcNAQEL
BQADgYEAo1I7SUjds9beXguJuhLKiFTItvUKZ0fXhLQHVU+WV79TMN1BsL5d7gq0
aouFfpNozMOF/j12frnWxchJzkCS6aQL97ql28RORQ//cmE6iB1lrf0qSc0ZSgzk
eprBCzvYF4yu1VgxLjUBwuaCWfQCNW7OloVPdAjhsHLvzywn4kI=
-----END CERTIFICATE-----
