Certificate:
    Data:
        Version: 3 (0x2)
        Serial Number: 2 (0x2)
        Signature Algorithm: sha256WithRSAEncryption
        Issuer: CN=Test CA
        Validity
            Not Before: Jan  1 00:00:00 1970 GMT
            Not After : Jan 27 18:43:32 2034 GMT
        Subject: CN=Test CA
        Subject Public Key Info:
            Public Key Algorithm: rsaEncryption
                RSA Public-Key: (2048 bit)
                Modulus:
                    00:bf:58:f9:d6:80:6e:15:94:3c:42:eb:4c:9a:74:
                    a6:70:16:0e:31:aa:3b:94:06:d9:28:5e:21:5b:da:
                    fc:b7:cc:3e:06:fb:f9:fe:4c:84:dd:d1:b0:a3:1a:
                    68:20:99:2e:28:02:59:dc:03:12:5c:21:8b:2a:0b:
                    92:8f:87:61:d0:2c:bd:4b:84:84:c2:e8:4b:cf:09:
                    28:86:65:89:9d:f5:85:70:a0:58:29:aa:bd:f5:3d:
                    b0:fe:98:5d:f2:50:f3:f1:1f:94:d5:f8:ff:25:92:
                    14:a4:81:19:bc:1a:03:5b:b3:1b:ea:7b:9c:99:9a:
                    f4:3f:2a:a5:96:b0:07:96:48:79:b0:52:d4:fc:f2:
                    51:62:94:fa:b0:69:b8:86:11:ab:b8:02:4d:93:e5:
                    2b:01:50:ef:fa:06:f6:91:4d:56:58:a3:11:f3:0f:
                    16:87:de:42:0a:53:b0:07:73:07:6d:ed:cf:91:52:
                    2b:b4:e8:93:7e:57:aa:39:a4:47:1f:f6:ff:7d:8f:
                    73:16:b3:2e:cb:4c:5f:40:c0:0c:02:2c:c8:6c:1b:
                    8c:ec:54:d9:e1:60:98:de:77:e7:ee:a9:95:80:83:
                    39:de:44:c2:83:d6:46:a2:f7:ac:63:6e:f5:b8:30:
                    c2:5c:63:8f:0a:47:3a:6f:be:ef:3e:21:0a:52:69:
                    8f:35
                Exponent: 65537 (0x10001)
        X509v3 extensions:
            X509v3 Basic Constraints: critical
                CA:TRUE
            X509v3 Key Usage: critical
                Certificate Sign, CRL Sign
            X509v3 Subject Key Identifier: 
                58:D3:6E:35:36:97:04:91:6A:B6:DF:45:80:9A:53:B3:E4:36:C8:3D
            Netscape Comment: 
                Puppet Server Internal Certificate
            X509v3 Authority Key Identifier: 
                keyid:58:D3:6E:35:36:97:04:91:6A:B6:DF:45:80:9A:53:B3:E4:36:C8:3D

    Signature Algorithm: sha256WithRSAEncryption
         8b:75:55:6d:7c:61:c3:55:54:a8:d8:ed:47:e0:0a:e6:fb:ae:
         93:b3:d4:e5:69:ec:c3:db:0c:6a:91:05:84:3b:44:3c:d9:ce:
         36:50:ce:b1:f5:88:39:e1:a7:87:77:81:b3:67:4d:06:1a:87:
         fd:50:6c:07:e5:24:32:0d:0e:95:c5:0d:c0:8f:af:1f:e7:9c:
         65:5c:e1:c7:75:80:d5:6d:04:6a:2d:15:bc:d5:09:dc:9b:38:
         bc:12:df:94:32:25:36:53:bc:a4:1a:a2:c7:11:1d:aa:c6:93:
         48:ec:25:52:88:6b:04:94:c3:ac:6b:bc:17:c0:75:2e:c9:53:
         83:63:1c:77:69:42:4a:cd:7c:d1:3b:a5:a4:fc:1c:71:66:1b:
         b1:44:32:53:4d:3c:26:a8:7e:ea:99:de:3a:5a:a9:70:7b:49:
         f5:27:c4:d2:10:de:51:87:e2:5b:c9:7c:08:58:de:13:68:07:
         f1:69:05:65:e9:b3:6f:ad:cd:06:10:f7:1d:f8:bd:c3:26:e1:
         e1:0c:8a:0b:f2:36:d8:ab:4f:fe:b2:b2:7e:b4:3a:f5:31:46:
         3f:ce:36:1c:e6:30:f7:11:66:21:1c:48:e9:49:a0:90:b4:3f:
         04:ae:f0:f8:00:65:9e:9c:c5:28:d5:c8:3a:ff:a0:eb:03:bf:
         c0:2f:41:cd
-----BEGIN CERTIFICATE-----
MIIDNzCCAh+gAwIBAgIBAjANBgkqhkiG9w0BAQsFADASMRAwDgYDVQQDDAdUZXN0
IENBMB4XDTcwMDEwMTAwMDAwMFoXDTM0MDEyNzE4NDMzMlowEjEQMA4GA1UEAwwH
VGVzdCBDQTCCASIwDQYJKoZIhvcNAQEBBQADggEPADCCAQoCggEBAL9Y+daAbhWU
PELrTJp0pnAWDjGqO5QG2SheIVva/LfMPgb7+f5MhN3RsKMaaCCZLigCWdwDElwh
iyoLko+HYdAsvUuEhMLoS88JKIZliZ31hXCgWCmqvfU9sP6YXfJQ8/EflNX4/yWS
FKSBGbwaA1uzG+p7nJma9D8qpZawB5ZIebBS1PzyUWKU+rBpuIYRq7gCTZPlKwFQ
7/oG9pFNVlijEfMPFofeQgpTsAdzB23tz5FSK7Tok35XqjmkRx/2/32PcxazLstM
X0DADAIsyGwbjOxU2eFgmN535+6plYCDOd5EwoPWRqL3rGNu9bgwwlxjjwpHOm++
7z4hClJpjzUCAwEAAaOBlzCBlDAPBgNVHRMBAf8EBTADAQH/MA4GA1UdDwEB/wQE
AwIBBjAdBgNVHQ4EFgQUWNNuNTaXBJFqtt9FgJpTs+Q2yD0wMQYJYIZIAYb4QgEN
BCQWIlB1cHBldCBTZXJ2ZXIgSW50ZXJuYWwgQ2VydGlmaWNhdGUwHwYDVR0jBBgw
FoAUWNNuNTaXBJFqtt9FgJpTs+Q2yD0wDQYJKoZIhvcNAQELBQADggEBAIt1VW18
YcNVVKjY7UfgCub7rpOz1OVp7MPbDGqRBYQ7RDzZzjZQzrH1iDnhp4d3gbNnTQYa
h/1QbAflJDINDpXFDcCPrx/nnGVc4cd1gNVtBGotFbzVCdybOLwS35QyJTZTvKQa
oscRHarGk0jsJVKIawSUw6xrvBfAdS7JU4NjHHdpQkrNfNE7paT8HHFmG7FEMlNN
PCaofuqZ3jpaqXB7SfUnxNIQ3lGH4lvJfAhY3hNoB/FpBWXps2+tzQYQ9x34vcMm
4eEMigvyNtirT/6ysn60OvUxRj/ONhzmMPcRZiEcSOlJoJC0PwSu8PgAZZ6cxSjV
yDr/oOsDv8AvQc0=
-----END CERTIFICATE-----
