Certificate:
    Data:
        Version: 3 (0x2)
        Serial Number: 2 (0x2)
        Signature Algorithm: sha256WithRSAEncryption
        Issuer: CN=Test CA
        Validity
            Not Before: Jan  1 00:00:00 1970 GMT
            Not After : Jun 24 21:18:00 2033 GMT
        Subject: CN=Test CA
        Subject Public Key Info:
            Public Key Algorithm: rsaEncryption
                Public-Key: (2048 bit)
                Modulus:
                    00:f4:9a:3e:d9:2b:e1:1e:ea:3c:85:7d:27:87:f5:
                    f7:50:c6:60:f0:79:3b:86:23:ce:c9:ba:42:22:1b:
                    61:1a:bc:33:c7:cf:e2:56:8f:6c:84:3e:4e:d0:48:
                    b5:27:7e:7b:49:de:2b:5d:b2:9c:e6:49:53:52:c8:
                    89:92:cb:e1:6c:30:67:c6:74:25:e3:3f:7a:37:ef:
                    54:b4:bd:80:07:a6:db:77:5c:8f:56:ed:1b:14:af:
                    2a:12:f5:44:88:15:a3:63:f2:f9:44:fb:51:ed:9a:
                    6d:9c:cf:48:69:f6:d0:c9:6c:57:ee:1b:be:04:91:
                    b3:ad:16:ed:c8:d0:bf:b4:55:6b:e9:3c:2b:8c:57:
                    19:bc:f1:76:6f:90:8d:e4:60:79:c7:03:e3:9d:83:
                    42:ec:0e:79:78:3c:30:c4:d5:87:63:4d:2c:17:ad:
                    c6:ea:3b:ff:e4:73:1a:12:bb:ed:d3:f6:9d:9d:d9:
                    e7:05:7f:21:6c:27:0a:27:c5:6e:c8:53:6c:a3:bb:
                    0e:11:fa:c4:ab:97:8f:a1:fd:bd:f3:5e:fb:80:1d:
                    15:87:c7:b4:20:94:fc:cb:ac:06:a8:ae:b1:80:a0:
                    5d:50:68:8d:49:63:1b:b2:77:a2:6b:81:21:b6:58:
                    3a:f2:3d:21:ac:a5:91:bc:7d:36:46:f4:87:ea:ce:
                    a3:0f
                Exponent: 65537 (0x10001)
        X509v3 extensions:
            X509v3 Basic Constraints: critical
                CA:TRUE
            X509v3 Key Usage: critical
                Certificate Sign, CRL Sign
            X509v3 Subject Key Identifier: 
                83:68:26:16:4A:C3:88:0A:A6:48:43:98:E7:2D:4F:5F:70:8C:62:B2
            Netscape Comment: 
                Puppet Server Internal Certificate
            X509v3 Authority Key Identifier: 
                83:68:26:16:4A:C3:88:0A:A6:48:43:98:E7:2D:4F:5F:70:8C:62:B2
    Signature Algorithm: sha256WithRSAEncryption
    Signature Value:
        53:4c:5e:b5:86:73:e9:d0:ab:f1:87:8e:3c:3e:8c:5c:ce:c9:
        aa:86:a5:ea:96:96:77:e5:31:98:04:e5:46:f8:75:7b:00:b7:
        2a:b4:f6:a4:6c:e8:e8:7e:95:b0:c2:bb:a3:ae:87:49:9f:a2:
        ea:49:5a:d8:ac:79:b4:f7:aa:0c:6c:57:fb:27:8c:c0:31:97:
        b0:8f:b0:4e:53:96:99:3a:0e:4c:47:51:d1:93:88:48:a4:c4:
        e7:7b:c2:d7:34:4c:22:88:1b:85:f2:3f:ff:88:39:c1:61:da:
        52:ba:42:69:1a:9a:5b:1f:b5:f6:88:76:4e:21:f9:48:0a:4d:
        6e:4c:f2:b4:8c:4d:3b:c1:95:6d:f1:09:26:68:63:83:f5:d2:
        3e:d2:6d:c0:09:8e:93:36:c3:58:5e:c7:8b:79:1a:72:b6:af:
        eb:2e:3b:1d:2b:19:55:49:09:df:55:49:2b:d4:93:bf:95:df:
        ab:6d:aa:bc:57:e2:67:33:ec:6a:7a:33:e9:31:c8:01:01:53:
        03:f5:43:fb:8f:18:7c:0b:69:0d:81:d9:af:4b:f2:b9:b0:cd:
        5f:3d:24:a0:ad:ca:c5:b5:60:3c:fb:52:8f:48:1c:2d:ec:45:
        01:03:79:40:4e:f9:1c:e4:e5:67:27:21:2c:f7:48:95:ff:22:
        da:2b:2e:48
-----BEGIN CERTIFICATE-----
MIIDNzCCAh+gAwIBAgIBAjANBgkqhkiG9w0BAQsFADASMRAwDgYDVQQDDAdUZXN0
IENBMB4XDTcwMDEwMTAwMDAwMFoXDTMzMDYyNDIxMTgwMFowEjEQMA4GA1UEAwwH
VGVzdCBDQTCCASIwDQYJKoZIhvcNAQEBBQADggEPADCCAQoCggEBAPSaPtkr4R7q
PIV9J4f191DGYPB5O4Yjzsm6QiIbYRq8M8fP4laPbIQ+TtBItSd+e0neK12ynOZJ
U1LIiZLL4WwwZ8Z0JeM/ejfvVLS9gAem23dcj1btGxSvKhL1RIgVo2Py+UT7Ue2a
bZzPSGn20MlsV+4bvgSRs60W7cjQv7RVa+k8K4xXGbzxdm+QjeRgeccD452DQuwO
eXg8MMTVh2NNLBetxuo7/+RzGhK77dP2nZ3Z5wV/IWwnCifFbshTbKO7DhH6xKuX
j6H9vfNe+4AdFYfHtCCU/MusBqiusYCgXVBojUljG7J3omuBIbZYOvI9Iaylkbx9
Nkb0h+rOow8CAwEAAaOBlzCBlDAPBgNVHRMBAf8EBTADAQH/MA4GA1UdDwEB/wQE
AwIBBjAdBgNVHQ4EFgQUg2gmFkrDiAqmSEOY5y1PX3CMYrIwMQYJYIZIAYb4QgEN
BCQWIlB1cHBldCBTZXJ2ZXIgSW50ZXJuYWwgQ2VydGlmaWNhdGUwHwYDVR0jBBgw
FoAUg2gmFkrDiAqmSEOY5y1PX3CMYrIwDQYJKoZIhvcNAQELBQADggEBAFNMXrWG
c+nQq/GHjjw+jFzOyaqGpeqWlnflMZgE5Ub4dXsAtyq09qRs6Oh+lbDCu6Ouh0mf
oupJWtisebT3qgxsV/snjMAxl7CPsE5Tlpk6DkxHUdGTiEikxOd7wtc0TCKIG4Xy
P/+IOcFh2lK6QmkamlsftfaIdk4h+UgKTW5M8rSMTTvBlW3xCSZoY4P10j7SbcAJ
jpM2w1hex4t5GnK2r+suOx0rGVVJCd9VSSvUk7+V36ttqrxX4mcz7Gp6M+kxyAEB
UwP1Q/uPGHwLaQ2B2a9L8rmwzV89JKCtysW1YDz7Uo9IHC3sRQEDeUBO+Rzk5Wcn
ISz3SJX/ItorLkg=
-----END CERTIFICATE-----
