Certificate:
    Data:
        Version: 3 (0x2)
        Serial Number: 0 (0x0)
    Signature Algorithm: sha256WithRSAEncryption
        Issuer: CN=Test CA
        Validity
            Not Before: Jan  1 00:00:00 1970 GMT
            Not After : Mar  9 21:35:53 2029 GMT
        Subject: CN=Test CA
        Subject Public Key Info:
            Public Key Algorithm: rsaEncryption
                Public-Key: (1024 bit)
                Modulus:
                    00:c8:15:08:03:7c:69:d7:4d:05:f9:81:0c:f3:f1:
                    77:ed:4a:e8:7c:f7:ac:77:bb:5c:8b:5c:96:31:01:
                    bf:aa:b4:16:e6:d6:b3:22:15:4b:5c:8e:3c:99:af:
                    7b:7d:1a:e8:0d:3d:40:14:37:00:f5:37:3a:00:06:
                    e1:0b:0e:37:b8:76:62:a3:9a:5e:47:d5:d4:2a:4e:
                    13:50:a9:0c:7a:b1:69:e7:79:9a:30:51:66:0b:e4:
                    b7:b9:7d:e4:5b:61:19:0b:8f:79:a9:43:b0:a1:ff:
                    c7:a6:7a:a6:fa:2e:88:28:84:66:68:bf:bf:b6:64:
                    9e:1e:b7:e7:fe:35:63:65:51
                Exponent: 65537 (0x10001)
        X509v3 extensions:
            X509v3 Basic Constraints: critical
                CA:TRUE
            X509v3 Key Usage: critical
                Certificate Sign, CRL Sign
            X509v3 Subject Key Identifier: 
                93:70:43:DA:C0:AA:14:71:0F:93:EB:82:E7:F5:AE:C9:D2:1A:78:77
            Netscape Comment: 
                Puppet Server Internal Certificate
            X509v3 Authority Key Identifier: 
                keyid:93:70:43:DA:C0:AA:14:71:0F:93:EB:82:E7:F5:AE:C9:D2:1A:78:77

    Signature Algorithm: sha256WithRSAEncryption
         41:67:29:fe:f0:0a:34:21:0a:a9:f6:bc:61:d1:55:73:37:fd:
         07:c3:8a:fc:85:44:e3:18:9d:76:d8:c3:0d:eb:52:68:54:33:
         bc:14:a5:35:7c:9f:98:60:5c:4d:68:75:6e:57:89:45:c7:95:
         7d:64:22:73:f6:91:46:a2:9d:a0:3d:17:29:2b:0b:98:30:b2:
         dc:2f:21:87:20:8a:dc:49:89:81:e3:04:35:05:53:26:63:6e:
         4c:be:00:1a:37:fc:39:e3:e0:56:04:0d:95:89:ca:0c:e8:36:
         92:d4:8e:51:97:ae:10:9e:0e:2b:ff:f4:1d:79:8c:2b:82:4b:
         67:6e
-----BEGIN CERTIFICATE-----
MIICMjCCAZugAwIBAgIBADANBgkqhkiG9w0BAQsFADASMRAwDgYDVQQDDAdUZXN0
IENBMB4XDTcwMDEwMTAwMDAwMFoXDTI5MDMwOTIxMzU1M1owEjEQMA4GA1UEAwwH
VGVzdCBDQTCBnzANBgkqhkiG9w0BAQEFAAOBjQAwgYkCgYEAyBUIA3xp100F+YEM
8/F37UrofPesd7tci1yWMQG/qrQW5tazIhVLXI48ma97fRroDT1AFDcA9Tc6AAbh
Cw43uHZio5peR9XUKk4TUKkMerFp53maMFFmC+S3uX3kW2EZC495qUOwof/Hpnqm
+i6IKIRmaL+/tmSeHrfn/jVjZVECAwEAAaOBlzCBlDAPBgNVHRMBAf8EBTADAQH/
MA4GA1UdDwEB/wQEAwIBBjAdBgNVHQ4EFgQUk3BD2sCqFHEPk+uC5/WuydIaeHcw
MQYJYIZIAYb4QgENBCQWIlB1cHBldCBTZXJ2ZXIgSW50ZXJuYWwgQ2VydGlmaWNh
dGUwHwYDVR0jBBgwFoAUk3BD2sCqFHEPk+uC5/WuydIaeHcwDQYJKoZIhvcNAQEL
BQADgYEAQWcp/vAKNCEKqfa8YdFVczf9B8OK/IVE4xiddtjDDetSaFQzvBSlNXyf
mGBcTWh1bleJRceVfWQic/aRRqKdoD0XKSsLmDCy3C8hhyCK3EmJgeMENQVTJmNu
TL4AGjf8OePgVgQNlYnKDOg2ktSOUZeuEJ4OK//0HXmMK4JLZ24=
-----END CERTIFICATE-----
