Certificate:
    Data:
        Version: 3 (0x2)
        Serial Number: 2 (0x2)
        Signature Algorithm: sha256WithRSAEncryption
        Issuer: CN=Test CA
        Validity
            Not Before: Jan  1 00:00:00 1970 GMT
            Not After : Jun 15 01:19:37 2031 GMT
        Subject: CN=Test CA
        Subject Public Key Info:
            Public Key Algorithm: rsaEncryption
                RSA Public-Key: (2048 bit)
                Modulus:
                    00:b0:eb:f6:b5:c4:28:a8:18:53:85:91:20:76:5d:
                    aa:be:78:ae:10:60:d3:b5:66:f7:41:c8:bf:42:00:
                    c8:99:63:ed:d0:92:12:5a:71:c0:da:d2:fd:b3:65:
                    3b:a5:fa:be:0d:e5:2a:20:2f:df:a1:c5:41:c3:c3:
                    9c:04:eb:07:6c:8d:48:9c:14:be:24:81:7d:03:4d:
                    56:62:80:6b:34:e0:ad:68:f0:17:3d:fa:3b:b4:f7:
                    a9:a3:fb:7d:30:0d:dd:c5:0b:b6:32:b6:c2:d9:b1:
                    e8:97:ce:19:66:89:1b:5d:d6:4a:d9:0e:a6:b2:ad:
                    cc:57:e9:0a:12:83:98:a3:18:90:a3:ae:ec:8e:a1:
                    96:ee:a4:36:7b:13:c4:95:45:02:69:89:f4:d3:49:
                    17:e6:e4:d5:91:23:24:7e:94:52:b5:4f:f3:0b:11:
                    d8:b2:69:7e:72:25:88:03:15:7b:2f:64:ca:8c:a9:
                    ce:b0:ed:eb:00:aa:68:af:cd:e4:1c:13:af:a7:ff:
                    54:b6:7d:be:b5:6c:bd:6a:20:be:47:2f:a8:dd:7a:
                    1d:2a:44:a4:0b:15:eb:68:85:05:32:17:01:cf:a7:
                    27:03:cb:85:12:c1:ec:4f:c1:4b:2a:11:34:55:7c:
                    b3:6c:fa:79:6d:4f:be:31:92:b8:f3:01:90:8e:42:
                    6b:71
                Exponent: 65537 (0x10001)
        X509v3 extensions:
            X509v3 Basic Constraints: critical
                CA:TRUE
            X509v3 Key Usage: critical
                Certificate Sign, CRL Sign
            X509v3 Subject Key Identifier: 
                B2:EE:24:88:34:99:18:60:81:9E:2A:D3:F4:5A:66:FA:91:F6:E1:C6
            Netscape Comment: 
                Puppet Server Internal Certificate
            X509v3 Authority Key Identifier: 
                keyid:B2:EE:24:88:34:99:18:60:81:9E:2A:D3:F4:5A:66:FA:91:F6:E1:C6

    Signature Algorithm: sha256WithRSAEncryption
         7a:7f:46:71:8a:41:c5:43:91:be:aa:2c:ca:96:12:6f:0a:1b:
         7c:57:a7:cc:b3:8d:c5:ff:8c:77:f0:4e:ea:ae:b0:c3:af:01:
         c5:17:32:4d:b5:c6:72:77:20:a7:05:02:a0:26:a3:0d:a6:da:
         b4:cf:c8:96:36:76:c9:2f:db:90:db:e1:8e:83:5e:24:e5:47:
         22:1f:e5:17:0b:16:19:db:a2:ae:55:db:3b:6a:2a:f2:a8:95:
         25:d1:4f:13:bd:d8:07:b2:a1:63:18:0d:7d:4b:d8:74:be:bb:
         c5:b2:26:3a:6c:7d:b1:84:20:6c:53:ab:fc:27:5a:06:84:a5:
         f4:4d:63:ba:a2:43:40:76:c7:97:2a:ae:8f:5a:ca:0e:ab:4b:
         59:c3:6c:b5:3e:f5:d2:bd:55:ce:88:19:de:e5:4e:ca:fe:c1:
         83:02:9c:11:a2:97:88:64:8a:df:20:17:f3:47:9e:61:cf:c4:
         bc:13:bb:e8:ba:97:37:90:8f:1a:5c:f5:b1:00:8d:70:fe:a2:
         4c:8e:0a:bc:62:ed:8e:4e:e7:2a:15:13:59:7e:3b:a2:b8:41:
         f0:13:41:39:29:99:1a:ca:c6:6a:b6:99:c5:ca:57:1d:53:c4:
         c6:f5:7f:96:3b:11:05:96:10:a3:3c:96:d8:c3:07:2b:e2:66:
         a5:93:13:98
-----BEGIN CERTIFICATE-----
MIIDNzCCAh+gAwIBAgIBAjANBgkqhkiG9w0BAQsFADASMRAwDgYDVQQDDAdUZXN0
IENBMB4XDTcwMDEwMTAwMDAwMFoXDTMxMDYxNTAxMTkzN1owEjEQMA4GA1UEAwwH
VGVzdCBDQTCCASIwDQYJKoZIhvcNAQEBBQADggEPADCCAQoCggEBALDr9rXEKKgY
U4WRIHZdqr54rhBg07Vm90HIv0IAyJlj7dCSElpxwNrS/bNlO6X6vg3lKiAv36HF
QcPDnATrB2yNSJwUviSBfQNNVmKAazTgrWjwFz36O7T3qaP7fTAN3cULtjK2wtmx
6JfOGWaJG13WStkOprKtzFfpChKDmKMYkKOu7I6hlu6kNnsTxJVFAmmJ9NNJF+bk
1ZEjJH6UUrVP8wsR2LJpfnIliAMVey9kyoypzrDt6wCqaK/N5BwTr6f/VLZ9vrVs
vWogvkcvqN16HSpEpAsV62iFBTIXAc+nJwPLhRLB7E/BSyoRNFV8s2z6eW1PvjGS
uPMBkI5Ca3ECAwEAAaOBlzCBlDAPBgNVHRMBAf8EBTADAQH/MA4GA1UdDwEB/wQE
AwIBBjAdBgNVHQ4EFgQUsu4kiDSZGGCBnirT9Fpm+pH24cYwMQYJYIZIAYb4QgEN
BCQWIlB1cHBldCBTZXJ2ZXIgSW50ZXJuYWwgQ2VydGlmaWNhdGUwHwYDVR0jBBgw
FoAUsu4kiDSZGGCBnirT9Fpm+pH24cYwDQYJKoZIhvcNAQELBQADggEBAHp/RnGK
QcVDkb6qLMqWEm8KG3xXp8yzjcX/jHfwTuqusMOvAcUXMk21xnJ3IKcFAqAmow2m
2rTPyJY2dskv25Db4Y6DXiTlRyIf5RcLFhnboq5V2ztqKvKolSXRTxO92AeyoWMY
DX1L2HS+u8WyJjpsfbGEIGxTq/wnWgaEpfRNY7qiQ0B2x5cqro9ayg6rS1nDbLU+
9dK9Vc6IGd7lTsr+wYMCnBGil4hkit8gF/NHnmHPxLwTu+i6lzeQjxpc9bEAjXD+
okyOCrxi7Y5O5yoVE1l+O6K4QfATQTkpmRrKxmq2mcXKVx1TxMb1f5Y7EQWWEKM8
ltjDByviZqWTE5g=
-----END CERTIFICATE-----
