Certificate:
    Data:
        Version: 3 (0x2)
        Serial Number: 0 (0x0)
    Signature Algorithm: sha256WithRSAEncryption
        Issuer: CN=Test CA
        Validity
            Not Before: Jan  1 00:00:00 1970 GMT
            Not After : Apr 19 22:31:22 2029 GMT
        Subject: CN=Test CA
        Subject Public Key Info:
            Public Key Algorithm: rsaEncryption
                Public-Key: (1024 bit)
                Modulus:
                    00:d0:b3:d8:3f:2b:c0:45:8c:f0:3d:96:58:2c:5e:
                    0e:6a:46:81:ab:10:2f:22:9c:7c:69:f0:61:b7:2d:
                    f2:2f:46:97:d5:d9:1b:08:c8:c9:e8:18:a5:d8:89:
                    27:a7:80:cb:0a:8e:ee:26:32:89:70:37:2b:bf:6f:
                    7e:ee:12:7d:49:c7:0c:19:46:7c:65:99:dc:1f:1a:
                    31:af:ab:87:01:b3:68:8a:5b:51:a7:78:ca:cc:1d:
                    7c:26:b4:27:5f:67:75:99:7e:9f:16:ed:88:b3:8f:
                    77:0f:b3:e8:b3:97:bc:70:8b:ec:62:b9:a2:47:4b:
                    ef:dc:af:d4:9f:3d:17:cd:03
                Exponent: 65537 (0x10001)
        X509v3 extensions:
            X509v3 Basic Constraints: critical
                CA:TRUE
            X509v3 Key Usage: critical
                Certificate Sign, CRL Sign
            X509v3 Subject Key Identifier: 
                2C:25:19:A1:6C:B3:F7:69:FD:76:9B:3A:22:CB:0C:56:01:01:F1:31
            Netscape Comment: 
                Puppet Server Internal Certificate
            X509v3 Authority Key Identifier: 
                keyid:2C:25:19:A1:6C:B3:F7:69:FD:76:9B:3A:22:CB:0C:56:01:01:F1:31

    Signature Algorithm: sha256WithRSAEncryption
         1c:a2:87:ce:19:24:db:66:41:6b:42:a9:19:85:76:5d:0f:9d:
         30:18:6f:b7:90:7f:6a:c5:00:ce:21:73:4d:3e:c0:75:93:6d:
         c6:d9:3b:ad:4c:4a:46:75:f3:51:96:f2:ad:c2:13:53:f0:e3:
         f1:a6:49:0f:e7:4f:73:b6:60:9c:9d:52:c9:b6:61:4d:31:3f:
         94:12:7f:ef:8c:f5:81:ea:7a:13:8e:11:8b:7c:83:80:65:50:
         d2:3d:21:34:07:0a:58:25:43:8f:e6:c6:c9:30:7d:d8:8d:3d:
         17:8b:43:78:43:0d:6b:43:ea:72:d7:84:2a:ac:f9:02:be:d1:
         10:a0
-----BEGIN CERTIFICATE-----
MIICMjCCAZugAwIBAgIBADANBgkqhkiG9w0BAQsFADASMRAwDgYDVQQDDAdUZXN0
IENBMB4XDTcwMDEwMTAwMDAwMFoXDTI5MDQxOTIyMzEyMlowEjEQMA4GA1UEAwwH
VGVzdCBDQTCBnzANBgkqhkiG9w0BAQEFAAOBjQAwgYkCgYEA0LPYPyvARYzwPZZY
LF4OakaBqxAvIpx8afBhty3yL0aX1dkbCMjJ6Bil2Iknp4DLCo7uJjKJcDcrv29+
7hJ9SccMGUZ8ZZncHxoxr6uHAbNoiltRp3jKzB18JrQnX2d1mX6fFu2Is493D7Po
s5e8cIvsYrmiR0vv3K/Unz0XzQMCAwEAAaOBlzCBlDAPBgNVHRMBAf8EBTADAQH/
MA4GA1UdDwEB/wQEAwIBBjAdBgNVHQ4EFgQULCUZoWyz92n9dps6IssMVgEB8TEw
MQYJYIZIAYb4QgENBCQWIlB1cHBldCBTZXJ2ZXIgSW50ZXJuYWwgQ2VydGlmaWNh
dGUwHwYDVR0jBBgwFoAULCUZoWyz92n9dps6IssMVgEB8TEwDQYJKoZIhvcNAQEL
BQADgYEAHKKHzhkk22ZBa0KpGYV2XQ+dMBhvt5B/asUAziFzTT7AdZNtxtk7rUxK
RnXzUZbyrcITU/Dj8aZJD+dPc7ZgnJ1SybZhTTE/lBJ/74z1gep6E44Ri3yDgGVQ
0j0hNAcKWCVDj+bGyTB92I09F4tDeEMNa0PqcteEKqz5Ar7REKA=
-----END CERTIFICATE-----
