Certificate:
    Data:
        Version: 3 (0x2)
        Serial Number: 2 (0x2)
        Signature Algorithm: sha256WithRSAEncryption
        Issuer: CN=Test CA
        Validity
            Not Before: Jan  1 00:00:00 1970 GMT
            Not After : Apr 18 18:46:23 2031 GMT
        Subject: CN=Test CA
        Subject Public Key Info:
            Public Key Algorithm: rsaEncryption
                RSA Public-Key: (2048 bit)
                Modulus:
                    00:dd:a5:83:44:db:51:be:98:ef:b1:63:a7:04:b9:
                    ff:cd:71:d3:06:76:c4:25:68:e8:ea:ef:c5:b4:f9:
                    c2:76:aa:c0:1b:1b:0f:44:13:da:db:cf:d4:f4:88:
                    5c:cc:ac:f2:76:fb:9e:b6:2e:40:da:b8:c1:c8:cd:
                    24:90:63:10:6c:99:ee:0c:10:74:cc:38:b8:f3:b4:
                    d9:ed:1e:ac:07:29:b4:fe:f1:16:c2:18:7c:34:fd:
                    50:25:0f:f7:45:84:e0:4b:21:41:a4:5b:19:42:85:
                    a3:a8:d3:6a:ea:0f:80:f3:1a:06:f8:aa:31:4b:e5:
                    44:a8:37:80:d1:1b:01:ae:f3:b8:35:c6:3f:10:82:
                    84:fc:59:d9:47:d6:a9:e3:5e:f3:9f:89:23:6a:ed:
                    bc:92:6a:a1:49:2c:99:c3:89:b3:ab:3a:9f:6b:2d:
                    e6:39:95:15:e0:71:5f:6b:6a:23:2e:bc:cd:40:b2:
                    47:42:13:f4:f5:e7:43:76:5c:db:9d:10:3b:91:10:
                    cc:c7:27:db:a8:18:53:c9:50:eb:83:39:80:98:bf:
                    c0:cf:75:a8:31:56:2c:0f:32:44:b0:b8:2d:22:f9:
                    f6:a2:d6:0b:cf:5f:a2:89:7c:15:97:a9:01:5c:97:
                    6a:b9:9c:c2:aa:fd:a3:d9:aa:61:04:65:e4:13:7e:
                    58:7d
                Exponent: 65537 (0x10001)
        X509v3 extensions:
            X509v3 Basic Constraints: critical
                CA:TRUE
            X509v3 Key Usage: critical
                Certificate Sign, CRL Sign
            X509v3 Subject Key Identifier: 
                61:DF:EE:CE:DA:49:6B:5E:F3:EF:94:FE:F9:DC:C7:C0:5A:74:FE:DB
            Netscape Comment: 
                Puppet Server Internal Certificate
            X509v3 Authority Key Identifier: 
                keyid:61:DF:EE:CE:DA:49:6B:5E:F3:EF:94:FE:F9:DC:C7:C0:5A:74:FE:DB

    Signature Algorithm: sha256WithRSAEncryption
         28:6c:ca:8a:1f:b2:01:4b:35:d1:55:07:c8:7c:79:5f:fb:a2:
         e0:09:e9:25:d5:db:9f:d6:91:a8:cc:66:b1:63:bd:ad:f8:80:
         80:32:43:eb:77:ee:d7:fd:48:27:26:bb:e1:48:67:83:7c:91:
         4d:62:96:d6:6c:ce:37:5d:ff:f8:6a:f4:8d:31:3b:4c:f4:0d:
         4f:75:61:08:01:99:f0:92:d2:d0:50:08:6e:c3:0d:25:3b:5b:
         53:60:da:fa:90:02:2b:29:90:3f:f8:23:bb:9c:4c:0f:ad:d0:
         cc:1b:21:56:26:40:97:7c:86:33:31:7d:fd:a9:5f:53:14:3e:
         80:5f:91:09:f7:76:e4:ad:30:17:d0:aa:52:ef:e8:f6:6e:b7:
         8e:68:47:9b:f8:63:3e:50:52:ba:eb:4a:9e:40:c5:84:aa:94:
         49:0a:8a:ff:17:57:18:bd:fc:4d:71:6d:83:ee:4d:7e:40:6c:
         08:c5:ee:6e:0d:c6:97:ba:6d:35:80:89:c5:c5:95:7b:f0:d0:
         0a:39:2f:8e:70:03:bf:da:56:1d:59:6c:2c:c9:04:9b:d6:b2:
         f3:1b:cf:4f:f3:12:47:eb:05:ea:42:70:4f:02:33:d1:5e:27:
         a0:e3:66:d6:b0:d5:ab:e2:32:ad:e8:50:e1:f2:eb:17:ad:87:
         31:22:fe:22
-----BEGIN CERTIFICATE-----
MIIDNzCCAh+gAwIBAgIBAjANBgkqhkiG9w0BAQsFADASMRAwDgYDVQQDDAdUZXN0
IENBMB4XDTcwMDEwMTAwMDAwMFoXDTMxMDQxODE4NDYyM1owEjEQMA4GA1UEAwwH
VGVzdCBDQTCCASIwDQYJKoZIhvcNAQEBBQADggEPADCCAQoCggEBAN2lg0TbUb6Y
77FjpwS5/81x0wZ2xCVo6OrvxbT5wnaqwBsbD0QT2tvP1PSIXMys8nb7nrYuQNq4
wcjNJJBjEGyZ7gwQdMw4uPO02e0erAcptP7xFsIYfDT9UCUP90WE4EshQaRbGUKF
o6jTauoPgPMaBviqMUvlRKg3gNEbAa7zuDXGPxCChPxZ2UfWqeNe85+JI2rtvJJq
oUksmcOJs6s6n2st5jmVFeBxX2tqIy68zUCyR0IT9PXnQ3Zc250QO5EQzMcn26gY
U8lQ64M5gJi/wM91qDFWLA8yRLC4LSL59qLWC89fool8FZepAVyXarmcwqr9o9mq
YQRl5BN+WH0CAwEAAaOBlzCBlDAPBgNVHRMBAf8EBTADAQH/MA4GA1UdDwEB/wQE
AwIBBjAdBgNVHQ4EFgQUYd/uztpJa17z75T++dzHwFp0/tswMQYJYIZIAYb4QgEN
BCQWIlB1cHBldCBTZXJ2ZXIgSW50ZXJuYWwgQ2VydGlmaWNhdGUwHwYDVR0jBBgw
FoAUYd/uztpJa17z75T++dzHwFp0/tswDQYJKoZIhvcNAQELBQADggEBAChsyoof
sgFLNdFVB8h8eV/7ouAJ6SXV25/WkajMZrFjva34gIAyQ+t37tf9SCcmu+FIZ4N8
kU1iltZszjdd//hq9I0xO0z0DU91YQgBmfCS0tBQCG7DDSU7W1Ng2vqQAispkD/4
I7ucTA+t0MwbIVYmQJd8hjMxff2pX1MUPoBfkQn3duStMBfQqlLv6PZut45oR5v4
Yz5QUrrrSp5AxYSqlEkKiv8XVxi9/E1xbYPuTX5AbAjF7m4Nxpe6bTWAicXFlXvw
0Ao5L45wA7/aVh1ZbCzJBJvWsvMbz0/zEkfrBepCcE8CM9FeJ6DjZtaw1aviMq3o
UOHy6xethzEi/iI=
-----END CERTIFICATE-----
