Certificate Revocation List (CRL):
        Version 2 (0x1)
        Signature Algorithm: sha256WithRSAEncryption
        Issuer: CN=Test CA
        Last Update: Jan  1 00:00:00 1970 GMT
        Next Update: Jan 27 18:43:32 2034 GMT
        CRL extensions:
            X509v3 Authority Key Identifier: 
                keyid:58:D3:6E:35:36:97:04:91:6A:B6:DF:45:80:9A:53:B3:E4:36:C8:3D

            X509v3 CRL Number: 
                0
No Revoked Certificates.
    Signature Algorithm: sha256WithRSAEncryption
         9c:a5:dd:b2:ab:44:59:89:72:dc:e3:70:5d:e0:cb:5c:4d:a2:
         d3:35:61:15:2f:77:9c:d5:2c:82:82:b0:57:a6:f0:87:76:15:
         4c:34:18:8b:6c:e9:df:36:e0:a2:60:68:0d:67:3c:e4:82:9a:
         50:25:8d:fe:8c:be:57:f6:b1:ef:35:41:64:19:87:86:a5:39:
         d4:1b:8e:3f:59:29:42:9b:74:dd:b8:b0:03:8d:62:cd:c6:f1:
         84:ce:cb:8d:2f:dc:4c:5a:26:09:0d:e7:88:41:05:5f:27:80:
         14:68:50:56:46:00:2c:15:63:8d:01:78:fe:48:b0:89:63:05:
         38:5a:d5:b8:cf:14:0a:da:e0:ea:51:68:fe:5e:a6:d7:e9:30:
         8f:99:6a:3b:bd:a3:79:e2:f7:b5:ae:11:79:b9:aa:a4:55:80:
         74:95:ee:c9:f2:e6:fb:5b:71:ae:df:4f:ad:a1:8e:42:d2:c6:
         2d:03:1a:46:d4:41:a8:6e:25:a4:1f:9d:b1:04:bc:8c:8e:c7:
         b8:0d:77:ce:92:55:48:72:fb:5b:26:85:64:ff:ea:33:57:0c:
         d0:38:d7:cb:3e:07:08:1e:be:e3:03:05:1e:e9:31:2f:86:0f:
         8c:59:cd:20:30:5e:e7:e5:2b:a5:8e:11:0c:33:04:23:64:d0:
         78:80:28:a7
-----BEGIN X509 CRL-----
MIIBizB1AgEBMA0GCSqGSIb3DQEBCwUAMBIxEDAOBgNVBAMMB1Rlc3QgQ0EXDTcw
MDEwMTAwMDAwMFoXDTM0MDEyNzE4NDMzMlqgLzAtMB8GA1UdIwQYMBaAFFjTbjU2
lwSRarbfRYCaU7PkNsg9MAoGA1UdFAQDAgEAMA0GCSqGSIb3DQEBCwUAA4IBAQCc
pd2yq0RZiXLc43Bd4MtcTaLTNWEVL3ec1SyCgrBXpvCHdhVMNBiLbOnfNuCiYGgN
ZzzkgppQJY3+jL5X9rHvNUFkGYeGpTnUG44/WSlCm3TduLADjWLNxvGEzsuNL9xM
WiYJDeeIQQVfJ4AUaFBWRgAsFWONAXj+SLCJYwU4WtW4zxQK2uDqUWj+XqbX6TCP
mWo7vaN54ve1rhF5uaqkVYB0le7J8ub7W3Gu30+toY5C0sYtAxpG1EGobiWkH52x
BLyMjse4DXfOklVIcvtbJoVk/+ozVwzQONfLPgcIHr7jAwUe6TEvhg+MWc0gMF7n
5SuljhEMMwQjZNB4gCin
-----END X509 CRL-----
