Certificate Revocation List (CRL):
        Version 2 (0x1)
        Signature Algorithm: sha256WithRSAEncryption
        Issuer: CN=Test CA
        Last Update: Jan  1 00:00:00 1970 GMT
        Next Update: Jun 24 21:18:00 2033 GMT
        CRL extensions:
            X509v3 Authority Key Identifier: 
                83:68:26:16:4A:C3:88:0A:A6:48:43:98:E7:2D:4F:5F:70:8C:62:B2
            X509v3 CRL Number: 
                0
No Revoked Certificates.
    Signature Algorithm: sha256WithRSAEncryption
    Signature Value:
        8a:b8:7b:ae:cf:3e:a0:77:0b:35:2f:98:d9:35:29:97:56:2f:
        7b:e4:74:1e:29:2c:46:1f:bb:da:1d:60:fb:83:8b:fe:dd:42:
        f6:94:ab:c3:f1:a2:b9:1c:11:e8:85:be:5c:fd:ac:21:d9:e8:
        d7:af:be:bd:5c:e9:df:c4:13:6f:a6:5b:2e:9e:c5:dd:49:16:
        b5:ef:c8:21:c7:85:42:f0:b6:b5:d9:56:8d:d4:e8:0b:78:ba:
        96:44:a7:14:60:47:af:a6:6d:ac:11:1c:7d:52:59:57:ec:03:
        ea:de:ce:58:5d:0e:5a:71:c9:e5:0c:80:01:37:91:dc:14:b2:
        0e:3e:20:7e:e2:2e:18:56:6b:9a:3d:2c:d8:76:68:12:83:1a:
        b2:54:c8:82:30:12:52:b0:64:c8:b8:37:39:48:2a:5b:6b:0d:
        f8:01:5f:e6:c9:bd:73:64:82:af:66:62:d5:22:b6:eb:05:14:
        6b:cc:95:32:e6:bc:87:07:32:33:c1:2a:92:ef:16:48:be:40:
        4a:0d:78:de:bd:46:9c:d6:22:b2:44:8b:47:3f:79:28:7e:f9:
        16:23:74:d7:bc:19:64:b6:78:82:f1:4c:13:9f:12:c3:b8:57:
        c5:ce:2d:56:81:36:88:9d:99:6b:61:f5:60:21:e5:26:39:77:
        ce:60:08:2c
-----BEGIN X509 CRL-----
MIIBizB1AgEBMA0GCSqGSIb3DQEBCwUAMBIxEDAOBgNVBAMMB1Rlc3QgQ0EXDTcw
MDEwMTAwMDAwMFoXDTMzMDYyNDIxMTgwMFqgLzAtMB8GA1UdIwQYMBaAFINoJhZK
w4gKpkhDmOctT19wjGKyMAoGA1UdFAQDAgEAMA0GCSqGSIb3DQEBCwUAA4IBAQCK
uHuuzz6gdws1L5jZNSmXVi975HQeKSxGH7vaHWD7g4v+3UL2lKvD8aK5HBHohb5c
/awh2ejXr769XOnfxBNvplsunsXdSRa178ghx4VC8La12VaN1OgLeLqWRKcUYEev
pm2sERx9UllX7APq3s5YXQ5accnlDIABN5HcFLIOPiB+4i4YVmuaPSzYdmgSgxqy
VMiCMBJSsGTIuDc5SCpbaw34AV/myb1zZIKvZmLVIrbrBRRrzJUy5ryHBzIzwSqS
7xZIvkBKDXjevUac1iKyRItHP3kofvkWI3TXvBlktniC8UwTnxLDuFfFzi1WgTaI
nZlrYfVgIeUmOXfOYAgs
-----END X509 CRL-----
