Certificate Revocation List (CRL):
        Version 2 (0x1)
        Signature Algorithm: sha256WithRSAEncryption
        Issuer: CN=Test CA
        Last Update: Jan  1 00:00:00 1970 GMT
        Next Update: Apr 18 18:46:23 2031 GMT
        CRL extensions:
            X509v3 Authority Key Identifier: 
                keyid:61:DF:EE:CE:DA:49:6B:5E:F3:EF:94:FE:F9:DC:C7:C0:5A:74:FE:DB

            X509v3 CRL Number: 
                0
No Revoked Certificates.
    Signature Algorithm: sha256WithRSAEncryption
         6e:b5:9c:17:8b:61:3c:41:07:ac:de:27:18:ba:92:56:51:50:
         23:d8:f9:1f:70:b8:a6:eb:ae:6c:2c:67:c1:0e:ae:96:0f:f4:
         bc:0a:f3:bc:23:15:67:b0:32:a2:e0:4f:2c:7f:f9:c2:9d:91:
         2e:32:01:60:3b:e4:ad:05:b6:60:f1:90:9d:cd:63:a5:62:c1:
         4d:04:d6:90:30:f8:43:97:e6:88:0a:2a:65:8f:49:12:d6:41:
         5e:11:62:00:a5:ff:0f:c3:3e:97:e0:93:31:de:64:7c:11:a5:
         7b:f1:77:0a:8e:00:23:4c:9d:b1:c5:b5:41:bf:96:da:b7:c7:
         e7:8c:44:1b:c2:de:15:0f:da:32:52:45:65:54:dc:1b:a7:5b:
         d3:a2:b5:6e:85:3b:97:d9:09:52:c6:4d:6c:18:a4:22:58:11:
         bf:12:27:2f:64:00:a5:9a:7d:b8:10:0c:6d:eb:b8:70:ee:e2:
         58:86:eb:31:48:c0:af:92:92:fc:2e:1f:0f:61:77:7c:5c:a8:
         ca:bc:52:94:e4:f2:bc:c2:f1:fa:aa:16:63:9d:16:51:92:7b:
         ad:da:fd:94:ed:3d:e9:8c:ad:ba:95:34:98:6a:ea:e6:9c:8e:
         38:a3:20:34:19:63:1e:7f:f3:26:07:7f:46:27:01:85:91:46:
         44:66:c7:03
-----BEGIN X509 CRL-----
MIIBizB1AgEBMA0GCSqGSIb3DQEBCwUAMBIxEDAOBgNVBAMMB1Rlc3QgQ0EXDTcw
MDEwMTAwMDAwMFoXDTMxMDQxODE4NDYyM1qgLzAtMB8GA1UdIwQYMBaAFGHf7s7a
SWte8++U/vncx8BadP7bMAoGA1UdFAQDAgEAMA0GCSqGSIb3DQEBCwUAA4IBAQBu
tZwXi2E8QQes3icYupJWUVAj2PkfcLim665sLGfBDq6WD/S8CvO8IxVnsDKi4E8s
f/nCnZEuMgFgO+StBbZg8ZCdzWOlYsFNBNaQMPhDl+aICiplj0kS1kFeEWIApf8P
wz6X4JMx3mR8EaV78XcKjgAjTJ2xxbVBv5bat8fnjEQbwt4VD9oyUkVlVNwbp1vT
orVuhTuX2QlSxk1sGKQiWBG/EicvZAClmn24EAxt67hw7uJYhusxSMCvkpL8Lh8P
YXd8XKjKvFKU5PK8wvH6qhZjnRZRknut2v2U7T3pjK26lTSYaurmnI44oyA0GWMe
f/MmB39GJwGFkUZEZscD
-----END X509 CRL-----
