Certificate Revocation List (CRL):
        Version 2 (0x1)
        Signature Algorithm: sha256WithRSAEncryption
        Issuer: CN=Test CA
        Last Update: Jan  1 00:00:00 1970 GMT
        Next Update: Jun 15 01:19:37 2031 GMT
        CRL extensions:
            X509v3 Authority Key Identifier: 
                keyid:B2:EE:24:88:34:99:18:60:81:9E:2A:D3:F4:5A:66:FA:91:F6:E1:C6

            X509v3 CRL Number: 
                0
No Revoked Certificates.
    Signature Algorithm: sha256WithRSAEncryption
         94:c0:29:e4:a6:0d:fb:0f:8d:96:5a:74:40:0b:1f:c7:58:0d:
         b8:a4:3d:44:b8:2e:93:82:c1:b0:56:4b:ee:c1:a3:a3:9d:cd:
         dd:48:89:92:18:d0:d5:bf:87:06:6c:00:65:9e:73:30:9a:57:
         8a:21:26:73:60:2b:a6:46:59:1a:9a:ca:64:3e:fa:ea:0b:f1:
         07:4f:70:0a:27:eb:89:d7:51:5a:62:73:ec:ef:23:5e:c5:04:
         07:b0:17:b9:7a:4a:b7:9f:77:8d:5e:7c:fe:30:d5:37:3a:f2:
         22:d9:14:a6:cb:b3:10:36:27:49:87:28:42:2f:0e:9d:04:36:
         6e:0a:8f:01:a8:35:b8:46:05:8b:02:25:69:5d:0c:55:a4:5b:
         d1:7f:48:5a:e3:06:4f:13:f8:b6:fc:34:93:b7:20:27:7d:79:
         44:a2:ce:1f:24:42:7e:c8:9b:3d:d4:62:db:0a:3a:1b:d4:30:
         94:5e:ff:9b:b3:eb:c2:19:36:a9:71:a6:9a:d6:a5:04:f1:05:
         7a:6b:3d:82:7f:8b:96:8c:27:41:13:8d:2e:82:94:68:a0:0b:
         10:75:cb:e6:05:07:86:d7:44:7c:09:1d:e9:65:a9:29:13:dc:
         ef:a6:c7:93:8e:e7:09:c2:14:7d:d4:31:e4:db:f9:1f:dd:15:
         93:e5:23:2f
-----BEGIN X509 CRL-----
MIIBizB1AgEBMA0GCSqGSIb3DQEBCwUAMBIxEDAOBgNVBAMMB1Rlc3QgQ0EXDTcw
MDEwMTAwMDAwMFoXDTMxMDYxNTAxMTkzN1qgLzAtMB8GA1UdIwQYMBaAFLLuJIg0
mRhggZ4q0/RaZvqR9uHGMAoGA1UdFAQDAgEAMA0GCSqGSIb3DQEBCwUAA4IBAQCU
wCnkpg37D42WWnRACx/HWA24pD1EuC6TgsGwVkvuwaOjnc3dSImSGNDVv4cGbABl
nnMwmleKISZzYCumRlkamspkPvrqC/EHT3AKJ+uJ11FaYnPs7yNexQQHsBe5ekq3
n3eNXnz+MNU3OvIi2RSmy7MQNidJhyhCLw6dBDZuCo8BqDW4RgWLAiVpXQxVpFvR
f0ha4wZPE/i2/DSTtyAnfXlEos4fJEJ+yJs91GLbCjob1DCUXv+bs+vCGTapcaaa
1qUE8QV6az2Cf4uWjCdBE40ugpRooAsQdcvmBQeG10R8CR3pZakpE9zvpseTjucJ
whR91DHk2/kf3RWT5SMv
-----END X509 CRL-----
