Certificate:
    Data:
        Version: 3 (0x2)
        Serial Number: 9 (0x9)
        Signature Algorithm: sha256WithRSAEncryption
        Issuer: CN=Test CA Subauthority
        Validity
            Not Before: Jan  1 00:00:00 1970 GMT
            Not After : Jun 24 21:18:00 2033 GMT
        Subject: CN=ec
        Subject Public Key Info:
            Public Key Algorithm: id-ecPublicKey
                Public-Key: (256 bit)
                pub:
                    04:d0:40:f7:c9:01:ec:97:dc:32:1c:19:85:59:29:
                    19:a9:40:21:ba:9e:f9:87:f6:49:d6:97:e4:1a:d3:
                    d6:ac:12:de:63:34:2b:62:16:19:0b:af:3c:fd:87:
                    a1:66:3e:36:39:65:83:fd:2f:36:bc:fd:58:14:ff:
                    a5:2b:fb:35:32
                ASN1 OID: prime256v1
                NIST CURVE: P-256
    Signature Algorithm: sha256WithRSAEncryption
    Signature Value:
        97:13:55:70:9a:23:39:f8:08:f9:a6:9e:18:a0:08:23:a9:39:
        1b:2f:88:b9:db:37:da:28:4c:49:a0:eb:e5:5d:ee:c5:60:f7:
        6d:13:b1:cb:92:73:70:40:7e:d2:b8:7a:19:08:63:78:a3:0d:
        ab:c5:f3:93:90:93:fa:25:e5:f6:18:f7:bf:57:68:97:51:9f:
        04:69:f9:10:7d:63:2a:2c:d4:41:0d:65:19:6e:3a:cd:dd:fd:
        17:64:9e:14:1c:ef:d7:64:09:3f:16:b6:23:c1:f5:97:a8:5a:
        79:97:61:10:9e:f4:88:dc:78:ef:5e:2f:6d:05:a3:b1:8a:d7:
        92:2f:0e:66:3e:b4:fd:00:5c:f9:7c:0a:7d:78:75:33:3c:8f:
        59:0a:ca:0a:da:14:a7:36:00:5c:ec:df:26:e0:cb:90:0d:4a:
        12:8b:f1:c2:a8:9f:a8:de:f2:a0:2c:33:28:38:c0:00:a6:09:
        e8:80:7f:2a:aa:e5:9c:55:c7:ed:62:21:2b:33:0c:6e:a7:04:
        b0:e1:63:19:75:26:76:80:2c:af:23:9d:d6:39:c8:b2:e3:78:
        8d:fe:2c:a6:06:55:11:10:9d:23:12:e9:74:5b:75:73:19:32:
        a1:83:d7:24:ba:61:b3:8b:81:2b:45:80:bf:f2:fa:6a:0b:7c:
        8d:46:81:0f
-----BEGIN CERTIFICATE-----
MIIB2TCBwqADAgECAgEJMA0GCSqGSIb3DQEBCwUAMB8xHTAbBgNVBAMMFFRlc3Qg
Q0EgU3ViYXV0aG9yaXR5MB4XDTcwMDEwMTAwMDAwMFoXDTMzMDYyNDIxMTgwMFow
DTELMAkGA1UEAwwCZWMwWTATBgcqhkjOPQIBBggqhkjOPQMBBwNCAATQQPfJAeyX
3DIcGYVZKRmpQCG6nvmH9knWl+Qa09asEt5jNCtiFhkLrzz9h6FmPjY5ZYP9Lza8
/VgU/6Ur+zUyMA0GCSqGSIb3DQEBCwUAA4IBAQCXE1VwmiM5+Aj5pp4YoAgjqTkb
L4i52zfaKExJoOvlXe7FYPdtE7HLknNwQH7SuHoZCGN4ow2rxfOTkJP6JeX2GPe/
V2iXUZ8EafkQfWMqLNRBDWUZbjrN3f0XZJ4UHO/XZAk/FrYjwfWXqFp5l2EQnvSI
3HjvXi9tBaOxiteSLw5mPrT9AFz5fAp9eHUzPI9ZCsoK2hSnNgBc7N8m4MuQDUoS
i/HCqJ+o3vKgLDMoOMAApgnogH8qquWcVcftYiErMwxupwSw4WMZdSZ2gCyvI53W
Ociy43iN/iymBlUREJ0jEul0W3VzGTKhg9ckumGzi4ErRYC/8vpqC3yNRoEP
-----END CERTIFICATE-----
