Certificate:
    Data:
        Version: 3 (0x2)
        Serial Number: 9 (0x9)
        Signature Algorithm: sha256WithRSAEncryption
        Issuer: CN=Test CA Subauthority
        Validity
            Not Before: Jan  1 00:00:00 1970 GMT
            Not After : Jan 27 18:43:32 2034 GMT
        Subject: CN=ec
        Subject Public Key Info:
            Public Key Algorithm: id-ecPublicKey
                Public-Key: (256 bit)
                pub:
                    04:e7:c1:a2:97:cd:95:ad:fe:a5:05:43:41:2d:19:
                    55:21:11:f5:f6:46:9f:45:74:6a:8c:91:c2:2e:32:
                    aa:47:1e:9e:2e:49:99:7c:af:98:fa:d8:ae:b3:a1:
                    26:46:d3:22:d3:3c:b1:2d:8d:3b:e2:03:cf:25:93:
                    d5:b7:a8:e2:ab
                ASN1 OID: prime256v1
                NIST CURVE: P-256
    Signature Algorithm: sha256WithRSAEncryption
         7b:c4:a8:34:2e:98:20:62:b2:23:44:29:1b:b7:b4:00:01:ea:
         94:59:ef:2a:76:73:4d:a4:5a:28:73:11:54:d5:00:19:89:90:
         e9:00:1b:68:01:2e:ab:66:76:bb:0b:2f:08:48:86:7b:8f:02:
         81:42:70:ec:fb:66:59:e7:40:f3:7b:13:c7:3a:29:79:60:5e:
         b1:86:0e:ef:78:dd:1c:67:b6:60:02:e0:a1:6d:bc:66:99:6d:
         46:ec:dd:a8:b6:36:38:1a:2e:29:5d:f7:aa:07:ef:d5:a7:48:
         78:38:16:29:08:61:f7:ab:a3:03:05:e6:7c:60:46:50:f6:05:
         03:a2:37:7a:67:0a:63:f5:bd:5d:12:82:06:0f:58:c9:58:33:
         bf:a7:4c:c1:e5:3c:5e:d7:e4:91:f2:67:24:03:46:e8:94:84:
         14:ae:be:c6:bc:2d:37:d8:5f:1d:ee:68:52:6c:9f:34:14:8d:
         ba:e6:7d:b1:d3:47:76:13:ef:11:18:28:64:c3:84:6b:cf:5d:
         68:4c:59:4f:09:55:e9:55:63:de:61:cf:98:2b:cf:f2:be:8d:
         c8:7b:62:8d:8b:98:4d:16:81:ce:8a:83:5a:e8:3a:50:18:cb:
         cc:92:54:07:d0:29:3c:96:70:86:b7:f3:a2:bb:8f:df:62:51:
         3d:20:58:0d
-----BEGIN CERTIFICATE-----
MIIB2TCBwqADAgECAgEJMA0GCSqGSIb3DQEBCwUAMB8xHTAbBgNVBAMMFFRlc3Qg
Q0EgU3ViYXV0aG9yaXR5MB4XDTcwMDEwMTAwMDAwMFoXDTM0MDEyNzE4NDMzMlow
DTELMAkGA1UEAwwCZWMwWTATBgcqhkjOPQIBBggqhkjOPQMBBwNCAATnwaKXzZWt
/qUFQ0EtGVUhEfX2Rp9FdGqMkcIuMqpHHp4uSZl8r5j62K6zoSZG0yLTPLEtjTvi
A88lk9W3qOKrMA0GCSqGSIb3DQEBCwUAA4IBAQB7xKg0LpggYrIjRCkbt7QAAeqU
We8qdnNNpFoocxFU1QAZiZDpABtoAS6rZna7Cy8ISIZ7jwKBQnDs+2ZZ50DzexPH
Oil5YF6xhg7veN0cZ7ZgAuChbbxmmW1G7N2otjY4Gi4pXfeqB+/Vp0h4OBYpCGH3
q6MDBeZ8YEZQ9gUDojd6Zwpj9b1dEoIGD1jJWDO/p0zB5Txe1+SR8mckA0bolIQU
rr7GvC032F8d7mhSbJ80FI265n2x00d2E+8RGChkw4Rrz11oTFlPCVXpVWPeYc+Y
K8/yvo3Ie2KNi5hNFoHOioNa6DpQGMvMklQH0Ck8lnCGt/Oiu4/fYlE9IFgN
-----END CERTIFICATE-----
