Certificate:
    Data:
        Version: 3 (0x2)
        Serial Number: 7 (0x7)
        Signature Algorithm: sha256WithRSAEncryption
        Issuer: CN=Test CA Subauthority
        Validity
            Not Before: Jan  1 00:00:00 1970 GMT
            Not After : Apr 18 18:46:23 2031 GMT
        Subject: CN=ec
        Subject Public Key Info:
            Public Key Algorithm: id-ecPublicKey
                Public-Key: (256 bit)
                pub:
                    04:c4:23:3b:de:c0:ca:4f:ea:d4:e9:b2:de:9f:df:
                    22:97:5b:89:48:de:a6:6c:82:f6:b6:fc:a9:e5:cb:
                    14:f9:e6:2c:ce:08:5c:e2:99:55:ff:55:c2:03:33:
                    90:49:13:9a:3f:25:29:70:19:2c:20:5e:8a:09:ad:
                    cd:9e:86:0a:e6
                ASN1 OID: prime256v1
                NIST CURVE: P-256
    Signature Algorithm: sha256WithRSAEncryption
         27:2e:2b:92:93:5d:39:da:ea:0e:ae:02:eb:aa:30:a5:bb:1a:
         d5:e0:41:41:b5:6c:12:49:4d:61:39:1a:49:fc:5e:6a:22:ec:
         7a:b0:4d:3e:ee:aa:f4:e9:c8:62:fd:c1:72:6d:c0:ee:21:0c:
         eb:fb:5b:b1:81:ff:4e:bf:a7:c9:e8:37:02:2d:e3:f4:5c:49:
         5f:e1:6f:96:9f:02:46:a6:8c:1d:d1:e8:50:f8:40:b2:db:a8:
         c9:2d:5d:40:39:e7:31:c8:8f:9c:5a:bc:f8:a2:97:70:8d:fc:
         0c:f1:ce:a2:66:7b:14:c8:ae:30:c7:90:8e:cb:ce:e3:b9:69:
         9c:b8:6e:9e:61:a9:1b:90:28:2d:10:b3:5a:a1:b5:49:5a:48:
         2f:7b:80:ef:db:e3:41:c6:c4:a1:46:87:0c:d9:b2:fc:16:fb:
         ff:b6:93:ca:5e:67:73:1c:14:8a:a4:33:44:13:be:75:7c:6b:
         61:3a:42:79:fc:a2:20:1a:cc:90:a4:63:3c:a2:b2:e2:52:0a:
         03:21:6b:94:57:0e:4b:ab:30:b4:49:21:2f:bf:ae:aa:fc:62:
         62:f9:f7:03:ba:5f:99:6d:50:5c:03:61:7f:9e:96:1d:07:dd:
         32:f0:b7:80:22:4c:4c:00:50:59:2b:c8:76:1e:c3:b8:e5:0f:
         ad:f0:1c:d8
-----BEGIN CERTIFICATE-----
MIIB2TCBwqADAgECAgEHMA0GCSqGSIb3DQEBCwUAMB8xHTAbBgNVBAMMFFRlc3Qg
Q0EgU3ViYXV0aG9yaXR5MB4XDTcwMDEwMTAwMDAwMFoXDTMxMDQxODE4NDYyM1ow
DTELMAkGA1UEAwwCZWMwWTATBgcqhkjOPQIBBggqhkjOPQMBBwNCAATEIzvewMpP
6tTpst6f3yKXW4lI3qZsgva2/KnlyxT55izOCFzimVX/VcIDM5BJE5o/JSlwGSwg
XooJrc2ehgrmMA0GCSqGSIb3DQEBCwUAA4IBAQAnLiuSk1052uoOrgLrqjCluxrV
4EFBtWwSSU1hORpJ/F5qIux6sE0+7qr06chi/cFybcDuIQzr+1uxgf9Ov6fJ6DcC
LeP0XElf4W+WnwJGpowd0ehQ+ECy26jJLV1AOecxyI+cWrz4opdwjfwM8c6iZnsU
yK4wx5COy87juWmcuG6eYakbkCgtELNaobVJWkgve4Dv2+NBxsShRocM2bL8Fvv/
tpPKXmdzHBSKpDNEE751fGthOkJ5/KIgGsyQpGM8orLiUgoDIWuUVw5LqzC0SSEv
v66q/GJi+fcDul+ZbVBcA2F/npYdB90y8LeAIkxMAFBZK8h2HsO45Q+t8BzY
-----END CERTIFICATE-----
