Certificate:
    Data:
        Version: 3 (0x2)
        Serial Number: 8 (0x8)
        Signature Algorithm: sha256WithRSAEncryption
        Issuer: CN=Test CA Subauthority
        Validity
            Not Before: Jan  1 00:00:00 1970 GMT
            Not After : Jun 15 01:19:37 2031 GMT
        Subject: CN=ec
        Subject Public Key Info:
            Public Key Algorithm: id-ecPublicKey
                Public-Key: (256 bit)
                pub:
                    04:82:0e:06:bf:c4:ae:37:d8:b1:7f:49:07:20:0f:
                    0c:46:52:a5:f7:28:89:66:ed:70:0f:8d:f9:95:55:
                    74:27:78:9a:f7:8d:7b:9e:1f:3c:0c:1a:59:2b:64:
                    d4:66:d3:76:55:b7:a3:e6:11:c7:c1:5c:94:37:89:
                    01:21:58:07:3c
                ASN1 OID: prime256v1
                NIST CURVE: P-256
    Signature Algorithm: sha256WithRSAEncryption
         73:45:fa:9b:af:0b:0b:74:21:80:8b:4c:c7:25:ad:ed:aa:6e:
         0a:5e:86:f3:77:93:fe:b5:7d:4d:9d:cf:16:e6:27:81:c7:2e:
         a0:fd:6b:09:24:78:3e:d3:4f:48:c6:c0:55:a5:0e:ee:8a:b7:
         c5:70:c3:ac:d1:67:fd:fb:92:81:85:ea:8f:0e:49:29:49:a0:
         4f:92:5c:2c:39:db:7e:01:5b:4f:c6:36:4d:aa:84:36:b5:73:
         70:a4:e2:b8:bc:0c:1c:a4:b7:84:f5:81:9d:31:31:57:46:e7:
         0b:1c:53:20:0a:ee:0e:b0:93:a3:88:4a:66:33:c1:11:dc:b8:
         f9:1d:ee:72:97:e0:3a:53:9d:e5:25:16:4c:8a:12:4d:d1:39:
         21:68:21:cf:2f:f6:52:25:38:49:06:f5:41:d5:68:28:9c:73:
         40:16:3f:57:fc:4a:85:e4:c7:a6:bf:8b:66:e8:d5:0c:ce:8b:
         95:a8:53:e2:e9:a1:ef:53:5f:c4:87:a6:57:03:67:28:f1:eb:
         19:db:2a:81:55:e7:d4:a1:e9:be:97:39:28:e8:fe:01:48:c0:
         95:a6:3a:d5:f0:69:63:6c:ca:e8:74:f9:24:76:39:26:71:21:
         ad:c7:f3:dc:4a:24:a8:16:22:15:35:2a:43:3b:30:9d:67:99:
         a6:18:ec:77
-----BEGIN CERTIFICATE-----
MIIB2TCBwqADAgECAgEIMA0GCSqGSIb3DQEBCwUAMB8xHTAbBgNVBAMMFFRlc3Qg
Q0EgU3ViYXV0aG9yaXR5MB4XDTcwMDEwMTAwMDAwMFoXDTMxMDYxNTAxMTkzN1ow
DTELMAkGA1UEAwwCZWMwWTATBgcqhkjOPQIBBggqhkjOPQMBBwNCAASCDga/xK43
2LF/SQcgDwxGUqX3KIlm7XAPjfmVVXQneJr3jXueHzwMGlkrZNRm03ZVt6PmEcfB
XJQ3iQEhWAc8MA0GCSqGSIb3DQEBCwUAA4IBAQBzRfqbrwsLdCGAi0zHJa3tqm4K
Xobzd5P+tX1Nnc8W5ieBxy6g/WsJJHg+009IxsBVpQ7uirfFcMOs0Wf9+5KBheqP
DkkpSaBPklwsOdt+AVtPxjZNqoQ2tXNwpOK4vAwcpLeE9YGdMTFXRucLHFMgCu4O
sJOjiEpmM8ER3Lj5He5yl+A6U53lJRZMihJN0TkhaCHPL/ZSJThJBvVB1WgonHNA
Fj9X/EqF5Memv4tm6NUMzouVqFPi6aHvU1/Eh6ZXA2co8esZ2yqBVefUoem+lzko
6P4BSMCVpjrV8GljbMrodPkkdjkmcSGtx/PcSiSoFiIVNSpDOzCdZ5mmGOx3
-----END CERTIFICATE-----
