Certificate:
    Data:
        Version: 3 (0x2)
        Serial Number: 5 (0x5)
    Signature Algorithm: sha256WithRSAEncryption
        Issuer: CN=Test CA Subauthority
        Validity
            Not Before: Jan  1 00:00:00 1970 GMT
            Not After : Apr 19 22:31:22 2029 GMT
        Subject: CN=ec
        Subject Public Key Info:
            Public Key Algorithm: id-ecPublicKey
                Public-Key: (256 bit)
                pub:
                    04:b0:b9:7e:1e:25:44:42:3d:40:24:bb:e7:e5:34:
                    e6:16:05:b8:f0:ee:bf:0f:10:23:40:ff:af:40:7e:
                    1b:1c:3a:4b:e7:35:e4:06:98:97:ac:94:da:16:1f:
                    46:4f:72:0c:4b:08:b7:86:c0:a7:57:17:aa:57:a3:
                    1a:ba:b8:93:4e
                ASN1 OID: prime256v1
                NIST CURVE: P-256
    Signature Algorithm: sha256WithRSAEncryption
         02:89:4d:ca:b0:89:38:e7:c3:ee:d8:55:76:7a:b6:b6:8c:8a:
         a7:38:ef:62:97:3d:c6:83:5f:08:3d:39:d1:ea:50:12:32:37:
         6d:c6:aa:42:21:8b:39:46:e7:a9:a0:16:6f:80:c0:8a:08:19:
         4b:21:cb:14:59:49:d3:e7:f7:5b:ac:0f:ed:67:c3:b6:fa:c7:
         7d:60:38:70:c5:6c:df:a0:3f:e5:c0:79:ce:2d:21:a5:4b:48:
         50:a7:22:b3:71:d7:1a:44:47:8a:96:eb:e9:d3:fa:8d:dc:18:
         7f:1e:45:86:a0:05:6e:61:8f:33:6a:ae:4e:21:60:5d:49:ee:
         17:28
-----BEGIN CERTIFICATE-----
MIIBWDCBwqADAgECAgEFMA0GCSqGSIb3DQEBCwUAMB8xHTAbBgNVBAMMFFRlc3Qg
Q0EgU3ViYXV0aG9yaXR5MB4XDTcwMDEwMTAwMDAwMFoXDTI5MDQxOTIyMzEyMlow
DTELMAkGA1UEAwwCZWMwWTATBgcqhkjOPQIBBggqhkjOPQMBBwNCAASwuX4eJURC
PUAku+flNOYWBbjw7r8PECNA/69AfhscOkvnNeQGmJeslNoWH0ZPcgxLCLeGwKdX
F6pXoxq6uJNOMA0GCSqGSIb3DQEBCwUAA4GBAAKJTcqwiTjnw+7YVXZ6traMiqc4
72KXPcaDXwg9OdHqUBIyN23GqkIhizlG56mgFm+AwIoIGUshyxRZSdPn91usD+1n
w7b6x31gOHDFbN+gP+XAec4tIaVLSFCnIrNx1xpER4qW6+nT+o3cGH8eRYagBW5h
jzNqrk4hYF1J7hco
-----END CERTIFICATE-----
