Certificate:
    Data:
        Version: 3 (0x2)
        Serial Number: 3 (0x3)
        Signature Algorithm: sha256WithRSAEncryption
        Issuer: CN=Test CA
        Validity
            Not Before: Jan  1 00:00:00 1970 GMT
            Not After : Jan 27 18:43:32 2034 GMT
        Subject: CN=Test CA Subauthority
        Subject Public Key Info:
            Public Key Algorithm: rsaEncryption
                RSA Public-Key: (2048 bit)
                Modulus:
                    00:a4:f1:74:f2:db:24:84:39:da:26:5c:72:c8:2e:
                    a6:3e:57:88:90:ab:41:04:7a:7a:f3:af:f7:43:b7:
                    9b:d8:57:91:7e:15:d5:aa:cb:8d:d4:a5:de:54:4a:
                    22:bb:e3:6f:1a:03:7f:27:42:8a:db:45:ee:79:0e:
                    dd:c0:08:fc:f3:48:9e:ea:99:f9:08:cd:38:86:2d:
                    ca:2c:9b:d0:02:f2:81:29:72:a1:aa:a3:ea:fc:5f:
                    4a:a1:15:68:55:a9:ed:7d:3a:23:84:0c:0a:d8:10:
                    c7:0b:8c:b3:93:9a:61:55:10:73:34:14:21:de:28:
                    65:bf:6a:d3:dd:e8:3d:9e:69:78:1e:72:89:fd:73:
                    7e:75:e7:9b:4c:f2:65:3c:d5:ed:d4:d1:53:96:52:
                    b0:29:c1:e4:9d:5f:d7:62:d0:84:7b:e8:db:85:93:
                    b9:8f:4a:01:c4:6e:6d:e2:a9:6d:ec:51:d7:51:48:
                    fe:f4:83:45:a1:c1:b7:00:68:9c:02:92:a6:20:d4:
                    40:a0:c8:ee:ab:96:40:53:10:f1:b5:2d:a8:f9:50:
                    fe:eb:96:9a:9c:c1:31:2c:1f:70:d5:a7:37:ff:35:
                    1a:ac:d7:fc:9d:4f:e1:67:20:e6:9d:4a:66:c8:ac:
                    e0:0a:f5:4f:d4:43:56:d6:e1:6d:04:f4:ea:02:d5:
                    af:a9
                Exponent: 65537 (0x10001)
        X509v3 extensions:
            X509v3 Basic Constraints: critical
                CA:TRUE
            X509v3 Key Usage: critical
                Certificate Sign, CRL Sign
            X509v3 Subject Key Identifier: 
                EB:EA:7B:15:C9:4E:08:5B:87:27:09:E4:42:10:54:47:72:E9:38:29
            Netscape Comment: 
                Puppet Server Internal Certificate
            X509v3 Authority Key Identifier: 
                keyid:58:D3:6E:35:36:97:04:91:6A:B6:DF:45:80:9A:53:B3:E4:36:C8:3D

    Signature Algorithm: sha256WithRSAEncryption
         b1:df:5a:e5:7f:c9:d7:55:9f:a5:45:88:46:22:50:89:d2:0d:
         b4:fb:ee:5c:93:d5:f4:3e:c4:da:af:63:c5:0f:1a:43:b6:7c:
         6d:17:5e:ba:99:6b:ce:fe:e8:67:60:55:d4:fd:55:05:6c:fc:
         d3:1f:9c:9f:45:e3:f6:43:52:0b:11:b0:fa:d7:58:a7:79:15:
         a0:79:7b:e7:2b:59:49:5a:7f:84:73:34:98:d6:88:5a:e0:f3:
         99:38:69:9b:eb:ea:4f:9e:43:91:c9:d9:c6:87:7f:a9:3e:96:
         04:dd:75:04:30:ed:09:7e:da:bf:e9:a9:98:bf:a5:d1:71:c3:
         de:cd:03:4f:0d:7d:18:ee:49:0f:d7:7b:b6:4d:da:3c:9e:e1:
         d3:7b:d5:26:f7:b3:dc:af:c6:2c:5a:9f:f3:9f:ca:ef:23:7a:
         ab:82:c3:b4:1a:2b:75:6a:9c:9f:5c:85:f8:18:a4:e0:b7:7d:
         fd:12:a8:48:e6:b4:a9:5e:e9:12:06:56:47:24:7b:8a:30:62:
         96:6d:27:f6:f3:0b:6c:1e:da:85:49:a3:2c:5b:45:8b:fe:17:
         3b:bc:eb:54:57:23:15:b7:14:40:a0:72:4a:7f:f2:4c:f4:46:
         96:93:d5:42:c5:e4:66:d8:99:9e:84:5a:03:ff:cd:6a:88:4a:
         c8:40:b2:35
-----BEGIN CERTIFICATE-----
MIIDRDCCAiygAwIBAgIBAzANBgkqhkiG9w0BAQsFADASMRAwDgYDVQQDDAdUZXN0
IENBMB4XDTcwMDEwMTAwMDAwMFoXDTM0MDEyNzE4NDMzMlowHzEdMBsGA1UEAwwU
VGVzdCBDQSBTdWJhdXRob3JpdHkwggEiMA0GCSqGSIb3DQEBAQUAA4IBDwAwggEK
AoIBAQCk8XTy2ySEOdomXHLILqY+V4iQq0EEenrzr/dDt5vYV5F+FdWqy43Upd5U
SiK7428aA38nQorbRe55Dt3ACPzzSJ7qmfkIzTiGLcosm9AC8oEpcqGqo+r8X0qh
FWhVqe19OiOEDArYEMcLjLOTmmFVEHM0FCHeKGW/atPd6D2eaXgecon9c35155tM
8mU81e3U0VOWUrApweSdX9di0IR76NuFk7mPSgHEbm3iqW3sUddRSP70g0WhwbcA
aJwCkqYg1ECgyO6rlkBTEPG1Laj5UP7rlpqcwTEsH3DVpzf/NRqs1/ydT+FnIOad
SmbIrOAK9U/UQ1bW4W0E9OoC1a+pAgMBAAGjgZcwgZQwDwYDVR0TAQH/BAUwAwEB
/zAOBgNVHQ8BAf8EBAMCAQYwHQYDVR0OBBYEFOvqexXJTghbhycJ5EIQVEdy6Tgp
MDEGCWCGSAGG+EIBDQQkFiJQdXBwZXQgU2VydmVyIEludGVybmFsIENlcnRpZmlj
YXRlMB8GA1UdIwQYMBaAFFjTbjU2lwSRarbfRYCaU7PkNsg9MA0GCSqGSIb3DQEB
CwUAA4IBAQCx31rlf8nXVZ+lRYhGIlCJ0g20++5ck9X0PsTar2PFDxpDtnxtF166
mWvO/uhnYFXU/VUFbPzTH5yfReP2Q1ILEbD611ineRWgeXvnK1lJWn+EczSY1oha
4POZOGmb6+pPnkORydnGh3+pPpYE3XUEMO0Jftq/6amYv6XRccPezQNPDX0Y7kkP
13u2Tdo8nuHTe9Um97Pcr8YsWp/zn8rvI3qrgsO0Git1apyfXIX4GKTgt339EqhI
5rSpXukSBlZHJHuKMGKWbSf28wtsHtqFSaMsW0WL/hc7vOtUVyMVtxRAoHJKf/JM
9EaWk9VCxeRm2JmehFoD/81qiErIQLI1
-----END CERTIFICATE-----
