Certificate:
    Data:
        Version: 3 (0x2)
        Serial Number: 3 (0x3)
        Signature Algorithm: sha256WithRSAEncryption
        Issuer: CN=Test CA
        Validity
            Not Before: Jan  1 00:00:00 1970 GMT
            Not After : Apr 18 18:46:23 2031 GMT
        Subject: CN=Test CA Subauthority
        Subject Public Key Info:
            Public Key Algorithm: rsaEncryption
                RSA Public-Key: (2048 bit)
                Modulus:
                    00:cd:ef:ef:31:c5:33:69:3b:ee:25:06:b9:73:a7:
                    09:e5:c9:9c:0b:39:48:26:fb:88:26:50:2d:8a:52:
                    29:86:df:7a:12:f0:08:ea:61:52:80:98:9f:a5:45:
                    26:ad:6d:05:e6:b5:81:e5:91:b3:6b:98:53:09:0a:
                    e9:05:4b:29:de:3c:64:44:a7:d2:5d:3f:fc:5f:f8:
                    29:1f:b0:40:e2:74:8a:26:fd:e8:d7:74:a5:78:de:
                    bf:23:10:73:74:8d:1b:0c:4b:d7:1d:a9:ae:86:14:
                    05:63:7c:2a:00:38:d6:57:8a:b7:a8:45:80:27:f5:
                    71:0b:fa:e2:bd:a2:d1:08:8d:fa:cd:9c:f6:ad:89:
                    76:ea:ab:1c:78:f9:26:5b:a3:18:2a:f7:90:15:ed:
                    a7:db:50:e9:7d:55:99:7e:05:10:ca:56:11:51:5e:
                    de:8c:e2:be:2a:8a:34:41:1d:1d:23:92:04:50:05:
                    c5:5b:b8:7a:45:90:ee:0d:7f:01:b1:ed:d4:dd:c5:
                    28:ed:7d:4d:6a:70:21:3b:95:5e:e2:31:d7:17:bd:
                    5b:af:e4:ce:ad:6b:9f:5f:9e:e1:1e:86:ff:83:c1:
                    88:ec:87:bb:bf:a1:26:22:75:b9:57:31:10:fd:a5:
                    ca:82:70:6d:c8:a1:a3:f6:3e:76:3d:2e:cd:07:f9:
                    7b:3f
                Exponent: 65537 (0x10001)
        X509v3 extensions:
            X509v3 Basic Constraints: critical
                CA:TRUE
            X509v3 Key Usage: critical
                Certificate Sign, CRL Sign
            X509v3 Subject Key Identifier: 
                9A:15:19:07:A0:54:8D:C3:9D:4F:07:C4:05:A1:85:AC:92:D8:B1:E5
            Netscape Comment: 
                Puppet Server Internal Certificate
            X509v3 Authority Key Identifier: 
                keyid:61:DF:EE:CE:DA:49:6B:5E:F3:EF:94:FE:F9:DC:C7:C0:5A:74:FE:DB

    Signature Algorithm: sha256WithRSAEncryption
         80:38:84:87:30:76:98:4d:35:d8:99:c1:26:f9:4b:bc:aa:e4:
         e0:6f:b8:b2:0b:ad:22:82:b5:74:98:f2:98:7b:34:92:5e:d8:
         fa:0f:4f:73:43:b1:5d:d8:69:35:7d:41:1f:ab:bc:6a:14:3f:
         ff:78:5d:8e:c4:7d:38:5a:14:99:d2:fc:08:08:69:5c:78:9b:
         5b:a8:bc:bb:92:27:4e:1f:15:48:1c:da:71:f9:ce:ec:3f:55:
         1b:e5:5d:54:2e:10:b8:b6:57:c7:af:f7:de:7c:c0:76:50:4e:
         37:a9:3d:26:b8:50:61:89:36:1e:82:92:9d:f5:fd:96:a9:fc:
         c2:1e:ae:1c:b0:96:03:21:75:7b:9f:56:fa:96:e0:0e:de:df:
         98:74:65:b8:8d:52:eb:30:7f:aa:4d:d8:38:c2:0b:47:5d:64:
         c6:52:a2:26:10:f3:5a:d6:04:22:cc:39:8a:30:33:61:6d:6d:
         67:f2:dd:e6:1f:a0:45:36:ce:db:80:8c:5f:2a:ef:6e:c8:ee:
         64:20:7f:b1:eb:b1:71:1e:ff:31:00:91:3d:6d:fe:b6:e2:9a:
         de:7a:fe:e5:59:fc:b5:b7:3f:70:d2:b8:17:99:1a:5b:73:01:
         c4:17:cc:41:ed:d3:6d:20:56:0b:d7:8f:78:41:10:95:e2:66:
         ab:f2:2b:4b
-----BEGIN CERTIFICATE-----
MIIDRDCCAiygAwIBAgIBAzANBgkqhkiG9w0BAQsFADASMRAwDgYDVQQDDAdUZXN0
IENBMB4XDTcwMDEwMTAwMDAwMFoXDTMxMDQxODE4NDYyM1owHzEdMBsGA1UEAwwU
VGVzdCBDQSBTdWJhdXRob3JpdHkwggEiMA0GCSqGSIb3DQEBAQUAA4IBDwAwggEK
AoIBAQDN7+8xxTNpO+4lBrlzpwnlyZwLOUgm+4gmUC2KUimG33oS8AjqYVKAmJ+l
RSatbQXmtYHlkbNrmFMJCukFSynePGREp9JdP/xf+CkfsEDidIom/ejXdKV43r8j
EHN0jRsMS9cdqa6GFAVjfCoAONZXireoRYAn9XEL+uK9otEIjfrNnPatiXbqqxx4
+SZboxgq95AV7afbUOl9VZl+BRDKVhFRXt6M4r4qijRBHR0jkgRQBcVbuHpFkO4N
fwGx7dTdxSjtfU1qcCE7lV7iMdcXvVuv5M6ta59fnuEehv+DwYjsh7u/oSYidblX
MRD9pcqCcG3IoaP2PnY9Ls0H+Xs/AgMBAAGjgZcwgZQwDwYDVR0TAQH/BAUwAwEB
/zAOBgNVHQ8BAf8EBAMCAQYwHQYDVR0OBBYEFJoVGQegVI3DnU8HxAWhhayS2LHl
MDEGCWCGSAGG+EIBDQQkFiJQdXBwZXQgU2VydmVyIEludGVybmFsIENlcnRpZmlj
YXRlMB8GA1UdIwQYMBaAFGHf7s7aSWte8++U/vncx8BadP7bMA0GCSqGSIb3DQEB
CwUAA4IBAQCAOISHMHaYTTXYmcEm+Uu8quTgb7iyC60igrV0mPKYezSSXtj6D09z
Q7Fd2Gk1fUEfq7xqFD//eF2OxH04WhSZ0vwICGlceJtbqLy7kidOHxVIHNpx+c7s
P1Ub5V1ULhC4tlfHr/fefMB2UE43qT0muFBhiTYegpKd9f2WqfzCHq4csJYDIXV7
n1b6luAO3t+YdGW4jVLrMH+qTdg4wgtHXWTGUqImEPNa1gQizDmKMDNhbW1n8t3m
H6BFNs7bgIxfKu9uyO5kIH+x67FxHv8xAJE9bf624preev7lWfy1tz9w0rgXmRpb
cwHEF8xB7dNtIFYL1494QRCV4mar8itL
-----END CERTIFICATE-----
