Certificate Revocation List (CRL):
        Version 2 (0x1)
        Signature Algorithm: sha256WithRSAEncryption
        Issuer: CN=Test CA Subauthority
        Last Update: Jan  1 00:00:00 1970 GMT
        Next Update: Apr 18 18:46:23 2031 GMT
        CRL extensions:
            X509v3 Authority Key Identifier: 
                keyid:9A:15:19:07:A0:54:8D:C3:9D:4F:07:C4:05:A1:85:AC:92:D8:B1:E5

            X509v3 CRL Number: 
                0
Revoked Certificates:
    Serial Number: 06
        Revocation Date: Apr 20 18:46:23 2021 GMT
        CRL entry extensions:
            X509v3 CRL Reason Code: 
                Key Compromise
    Signature Algorithm: sha256WithRSAEncryption
         42:21:b1:27:84:31:dd:f0:bd:13:1f:70:b4:6e:e3:f5:9e:ec:
         c4:fd:64:a9:b3:78:c1:8f:26:76:b0:3d:4b:60:5f:be:6d:e7:
         c1:47:e0:f5:c2:f3:3f:6e:fc:4c:19:f8:41:82:52:9a:f4:02:
         d6:3a:23:91:21:92:5c:8c:fa:84:79:dc:10:3f:e3:42:45:5a:
         e6:26:12:67:42:45:c3:76:30:00:05:66:5e:79:cc:0f:d3:90:
         04:33:72:6c:d5:ae:5e:b4:d1:b1:91:4f:69:f9:b1:7e:c2:33:
         ae:b6:bb:2e:28:66:b5:0d:03:54:3f:93:40:ac:17:58:e6:d6:
         c9:7d:3b:96:ec:47:6f:09:a3:a0:ff:b9:77:f9:64:bf:10:30:
         df:20:d0:95:36:f4:88:d8:c4:c3:da:3e:86:07:e4:1e:11:c2:
         da:e5:1f:0f:82:3b:40:2e:cf:f8:14:a5:38:2b:b2:c3:80:18:
         84:e9:d5:90:85:36:00:9d:96:5e:03:ed:ee:2d:d9:5b:57:7f:
         9e:0d:7d:5b:4e:f9:89:3d:e2:d9:91:db:ae:6e:b0:34:59:30:
         9c:2e:0a:c8:74:57:10:db:6c:2f:60:70:d6:bb:c7:18:7b:0a:
         96:3d:77:71:51:11:3f:a3:16:fc:bd:7d:cd:12:a3:98:07:4c:
         a3:2c:7e:37
-----BEGIN X509 CRL-----
MIIBvTCBpgIBATANBgkqhkiG9w0BAQsFADAfMR0wGwYDVQQDDBRUZXN0IENBIFN1
YmF1dGhvcml0eRcNNzAwMTAxMDAwMDAwWhcNMzEwNDE4MTg0NjIzWjAiMCACAQYX
DTIxMDQyMDE4NDYyM1owDDAKBgNVHRUEAwoBAaAvMC0wHwYDVR0jBBgwFoAUmhUZ
B6BUjcOdTwfEBaGFrJLYseUwCgYDVR0UBAMCAQAwDQYJKoZIhvcNAQELBQADggEB
AEIhsSeEMd3wvRMfcLRu4/We7MT9ZKmzeMGPJnawPUtgX75t58FH4PXC8z9u/EwZ
+EGCUpr0AtY6I5EhklyM+oR53BA/40JFWuYmEmdCRcN2MAAFZl55zA/TkAQzcmzV
rl600bGRT2n5sX7CM662uy4oZrUNA1Q/k0CsF1jm1sl9O5bsR28Jo6D/uXf5ZL8Q
MN8g0JU29IjYxMPaPoYH5B4RwtrlHw+CO0Auz/gUpTgrssOAGITp1ZCFNgCdll4D
7e4t2VtXf54NfVtO+Yk94tmR265usDRZMJwuCsh0VxDbbC9gcNa7xxh7CpY9d3FR
ET+jFvy9fc0So5gHTKMsfjc=
-----END X509 CRL-----
