Certificate:
    Data:
        Version: 3 (0x2)
        Serial Number: 3 (0x3)
        Signature Algorithm: sha256WithRSAEncryption
        Issuer: CN=Test CA
        Validity
            Not Before: Jan  1 00:00:00 1970 GMT
            Not After : Jun 15 01:19:37 2031 GMT
        Subject: CN=Test CA Subauthority
        Subject Public Key Info:
            Public Key Algorithm: rsaEncryption
                RSA Public-Key: (2048 bit)
                Modulus:
                    00:af:36:20:41:45:0b:d1:13:0c:82:fd:b8:e5:ea:
                    f8:32:6b:5e:f7:a5:1c:7d:21:24:cb:85:bf:cd:f5:
                    ca:48:85:39:c1:42:a4:65:93:d2:a2:04:f9:c9:19:
                    10:da:64:0d:be:e3:d0:a5:d3:85:17:79:aa:18:32:
                    f7:0a:b9:8e:08:de:d8:97:06:28:99:ac:ed:d1:a6:
                    d4:0a:34:de:3d:33:e3:08:17:c2:22:6c:1d:fc:51:
                    df:98:e6:de:6e:c6:4b:26:f4:87:44:1e:86:b6:44:
                    b2:f3:82:9c:9c:2f:5b:66:bf:27:71:49:53:bf:c9:
                    d2:f5:06:7e:fe:fd:1c:59:ba:aa:a9:05:c8:cb:44:
                    f5:f5:51:7b:80:1c:59:0e:a5:bf:bb:af:f5:96:68:
                    26:ca:52:b6:a8:e3:f6:3f:b9:a0:60:09:67:4a:86:
                    5b:b4:ae:13:d9:39:ca:e0:84:dc:2e:83:51:ce:09:
                    34:36:30:9c:ff:54:32:a6:b6:5b:a6:41:bd:b3:2b:
                    5d:1d:eb:79:45:f4:fb:de:47:56:3c:8d:b1:96:34:
                    2d:ec:9a:66:4c:50:ab:c6:c4:05:3e:8c:27:7c:be:
                    54:53:5e:ae:20:70:15:12:0f:85:ab:be:18:dd:da:
                    f5:33:a5:55:6a:c7:d8:36:89:bb:1c:5d:ce:46:45:
                    ba:7d
                Exponent: 65537 (0x10001)
        X509v3 extensions:
            X509v3 Basic Constraints: critical
                CA:TRUE
            X509v3 Key Usage: critical
                Certificate Sign, CRL Sign
            X509v3 Subject Key Identifier: 
                59:79:27:C1:94:D7:09:B0:B2:1C:23:44:22:E2:25:25:1B:83:5F:34
            Netscape Comment: 
                Puppet Server Internal Certificate
            X509v3 Authority Key Identifier: 
                keyid:B2:EE:24:88:34:99:18:60:81:9E:2A:D3:F4:5A:66:FA:91:F6:E1:C6

    Signature Algorithm: sha256WithRSAEncryption
         95:3d:3f:6f:47:83:12:b6:c1:06:dc:86:dc:7b:d3:1b:53:28:
         cd:d6:38:10:ca:9c:af:bd:da:a2:64:df:6d:36:eb:5c:2b:c9:
         34:49:6b:d3:0e:22:94:3b:5e:ab:8b:f9:ee:ca:83:1e:94:1b:
         fe:38:de:a1:f1:7b:54:4b:0a:9a:95:43:03:9c:0c:45:b8:ac:
         4e:6f:38:76:8a:ac:87:10:e3:0c:f2:58:7b:3c:7c:75:4b:17:
         52:0f:88:8f:c5:3f:31:b1:09:3c:06:20:00:4a:30:cb:83:1a:
         fa:eb:32:be:5e:06:57:60:b3:59:40:a9:81:ee:b3:a5:68:f2:
         30:8a:2f:1f:22:e8:6f:58:e1:32:ae:28:59:39:97:84:bc:a8:
         10:b8:af:a6:9b:64:e1:a9:78:58:db:ad:0d:b1:00:dd:96:92:
         45:88:a0:22:f3:2a:e8:e1:27:4d:d0:67:af:a3:01:76:ef:5a:
         dc:22:c5:3c:78:1b:b1:a5:d3:8f:de:7c:21:29:9a:88:3b:7e:
         17:f4:5c:c2:b3:cc:b4:fc:f2:49:bb:cd:22:6c:71:ea:6b:1e:
         b0:6e:bd:5f:2a:0e:31:18:f7:9f:78:98:d7:51:98:0a:cd:da:
         89:28:f5:22:68:a1:36:1b:80:e7:dc:1c:d8:72:b1:7b:55:5e:
         90:d8:3b:9b
-----BEGIN CERTIFICATE-----
MIIDRDCCAiygAwIBAgIBAzANBgkqhkiG9w0BAQsFADASMRAwDgYDVQQDDAdUZXN0
IENBMB4XDTcwMDEwMTAwMDAwMFoXDTMxMDYxNTAxMTkzN1owHzEdMBsGA1UEAwwU
VGVzdCBDQSBTdWJhdXRob3JpdHkwggEiMA0GCSqGSIb3DQEBAQUAA4IBDwAwggEK
AoIBAQCvNiBBRQvREwyC/bjl6vgya173pRx9ISTLhb/N9cpIhTnBQqRlk9KiBPnJ
GRDaZA2+49Cl04UXeaoYMvcKuY4I3tiXBiiZrO3RptQKNN49M+MIF8IibB38Ud+Y
5t5uxksm9IdEHoa2RLLzgpycL1tmvydxSVO/ydL1Bn7+/RxZuqqpBcjLRPX1UXuA
HFkOpb+7r/WWaCbKUrao4/Y/uaBgCWdKhlu0rhPZOcrghNwug1HOCTQ2MJz/VDKm
tlumQb2zK10d63lF9PveR1Y8jbGWNC3smmZMUKvGxAU+jCd8vlRTXq4gcBUSD4Wr
vhjd2vUzpVVqx9g2ibscXc5GRbp9AgMBAAGjgZcwgZQwDwYDVR0TAQH/BAUwAwEB
/zAOBgNVHQ8BAf8EBAMCAQYwHQYDVR0OBBYEFFl5J8GU1wmwshwjRCLiJSUbg180
MDEGCWCGSAGG+EIBDQQkFiJQdXBwZXQgU2VydmVyIEludGVybmFsIENlcnRpZmlj
YXRlMB8GA1UdIwQYMBaAFLLuJIg0mRhggZ4q0/RaZvqR9uHGMA0GCSqGSIb3DQEB
CwUAA4IBAQCVPT9vR4MStsEG3Ibce9MbUyjN1jgQypyvvdqiZN9tNutcK8k0SWvT
DiKUO16ri/nuyoMelBv+ON6h8XtUSwqalUMDnAxFuKxObzh2iqyHEOMM8lh7PHx1
SxdSD4iPxT8xsQk8BiAASjDLgxr66zK+XgZXYLNZQKmB7rOlaPIwii8fIuhvWOEy
rihZOZeEvKgQuK+mm2ThqXhY260NsQDdlpJFiKAi8yro4SdN0GevowF271rcIsU8
eBuxpdOP3nwhKZqIO34X9FzCs8y0/PJJu80ibHHqax6wbr1fKg4xGPefeJjXUZgK
zdqJKPUiaKE2G4Dn3BzYcrF7VV6Q2Dub
-----END CERTIFICATE-----
