Certificate Revocation List (CRL):
        Version 2 (0x1)
        Signature Algorithm: sha256WithRSAEncryption
        Issuer: CN=Test CA Agent Subauthority
        Last Update: Jan  1 00:00:00 1970 GMT
        Next Update: Jun 15 01:19:37 2031 GMT
        CRL extensions:
            X509v3 Authority Key Identifier: 
                keyid:97:84:A5:C2:28:B4:15:97:89:C4:52:2C:69:8F:7B:75:DD:5F:2A:DC

            X509v3 CRL Number: 
                0
No Revoked Certificates.
    Signature Algorithm: sha256WithRSAEncryption
         14:7b:e6:cd:e2:be:2a:78:b9:05:94:16:e7:82:79:c9:03:b1:
         51:8a:0a:0f:8e:44:bf:da:9d:47:72:a9:08:4e:b5:d5:ef:17:
         54:5d:ba:db:bb:61:e9:5f:b4:8c:49:f7:2b:90:3a:50:00:57:
         89:00:3d:3c:dd:c2:2d:b2:6c:0d:29:21:4f:4d:68:57:44:bb:
         36:ba:fe:7f:97:e3:f0:87:7e:73:ba:c5:48:73:13:2c:30:2f:
         77:86:98:e2:24:93:1a:0c:dc:11:fb:38:48:b6:66:77:a6:d6:
         d8:c8:dd:23:16:b6:d9:1a:27:14:0f:28:68:8f:38:27:d2:a2:
         4f:c0:d6:61:f1:61:20:ef:59:4d:5a:20:c3:e7:01:98:36:d5:
         94:33:b1:8f:15:19:17:1b:d8:60:74:bc:5c:3f:6f:8b:95:f9:
         fc:77:2c:d6:42:17:0c:0e:4b:db:ed:66:0a:06:25:08:3d:03:
         6b:56:8b:7b:76:47:6a:c5:3c:97:c0:41:20:43:c8:b2:4b:bf:
         a0:07:94:58:ad:63:46:89:b2:b7:2a:76:fe:8e:69:d2:7d:51:
         df:07:bd:c0:14:ce:0d:46:24:ee:de:8b:7b:e4:04:87:be:90:
         f3:6e:dd:ae:4d:d7:93:d1:dc:3e:f5:4c:e8:1e:24:ca:26:59:
         ee:ce:48:f3
-----BEGIN X509 CRL-----
MIIBnzCBiAIBATANBgkqhkiG9w0BAQsFADAlMSMwIQYDVQQDDBpUZXN0IENBIEFn
ZW50IFN1YmF1dGhvcml0eRcNNzAwMTAxMDAwMDAwWhcNMzEwNjE1MDExOTM3WqAv
MC0wHwYDVR0jBBgwFoAUl4Slwii0FZeJxFIsaY97dd1fKtwwCgYDVR0UBAMCAQAw
DQYJKoZIhvcNAQELBQADggEBABR75s3ivip4uQWUFueCeckDsVGKCg+ORL/anUdy
qQhOtdXvF1Rdutu7YelftIxJ9yuQOlAAV4kAPTzdwi2ybA0pIU9NaFdEuza6/n+X
4/CHfnO6xUhzEywwL3eGmOIkkxoM3BH7OEi2Znem1tjI3SMWttkaJxQPKGiPOCfS
ok/A1mHxYSDvWU1aIMPnAZg21ZQzsY8VGRcb2GB0vFw/b4uV+fx3LNZCFwwOS9vt
ZgoGJQg9A2tWi3t2R2rFPJfAQSBDyLJLv6AHlFitY0aJsrcqdv6OadJ9Ud8HvcAU
zg1GJO7ei3vkBIe+kPNu3a5N15PR3D71TOgeJMomWe7OSPM=
-----END X509 CRL-----
