Certificate:
    Data:
        Version: 3 (0x2)
        Serial Number: 1 (0x1)
    Signature Algorithm: sha256WithRSAEncryption
        Issuer: CN=Test CA
        Validity
            Not Before: Jan  1 00:00:00 1970 GMT
            Not After : Mar  3 20:26:24 2029 GMT
        Subject: CN=Test CA Subauthority
        Subject Public Key Info:
            Public Key Algorithm: rsaEncryption
                Public-Key: (1024 bit)
                Modulus:
                    00:b8:87:4d:ef:6e:f3:a3:fc:e6:c5:e1:f9:d6:22:
                    f1:ed:50:ff:ba:18:8d:c7:ce:27:e3:70:40:36:9e:
                    a1:9f:8a:cb:75:7b:3d:9f:71:04:9a:18:85:a6:30:
                    a6:49:cb:d9:31:98:7a:f2:07:40:f2:9d:96:7b:98:
                    73:71:a5:f6:74:9c:32:1d:0a:c6:f9:a8:df:9e:a1:
                    f2:cd:ed:2a:2d:a3:e6:31:33:6d:a3:22:b7:ea:3f:
                    6d:79:f7:0d:b0:45:a3:8a:25:24:7d:90:ef:a7:dd:
                    41:e5:d2:fd:52:ab:10:fe:8d:72:64:0b:80:85:0c:
                    24:1f:78:26:99:0f:f2:cd:31
                Exponent: 65537 (0x10001)
        X509v3 extensions:
            X509v3 Basic Constraints: critical
                CA:TRUE
            X509v3 Key Usage: critical
                Certificate Sign, CRL Sign
            X509v3 Subject Key Identifier: 
                CB:B7:D8:15:1D:C0:7B:3F:1E:C8:2E:1E:32:C4:72:62:98:5E:87:49
            Netscape Comment: 
                Puppet Server Internal Certificate
            X509v3 Authority Key Identifier: 
                keyid:5F:67:9D:DE:33:62:11:B6:CB:E0:7D:8A:5F:27:55:E0:78:C9:E2:F2

    Signature Algorithm: sha256WithRSAEncryption
         5a:d5:ce:03:93:30:02:d1:2f:2f:a4:2b:27:41:ed:05:ca:01:
         95:98:85:e4:0a:99:5d:8a:c6:af:d8:46:81:95:c2:fc:7b:e9:
         18:21:04:75:64:3f:c5:64:f6:fa:8d:ed:bd:d8:a4:b5:2a:69:
         20:50:d9:8d:d1:2a:b8:fc:4b:e3:f0:ef:44:de:48:9f:e3:07:
         8f:a3:a0:ad:fc:a5:cd:b6:cd:e4:76:be:ab:ee:c2:97:c0:44:
         3d:d7:0f:37:48:14:9d:08:db:5f:79:ec:3d:b1:73:56:ae:15:
         6f:e5:58:e3:7e:11:cf:a8:fd:35:f8:7d:46:54:27:41:d2:d1:
         5e:ad
-----BEGIN CERTIFICATE-----
MIICPzCCAaigAwIBAgIBATANBgkqhkiG9w0BAQsFADASMRAwDgYDVQQDDAdUZXN0
IENBMB4XDTcwMDEwMTAwMDAwMFoXDTI5MDMwMzIwMjYyNFowHzEdMBsGA1UEAwwU
VGVzdCBDQSBTdWJhdXRob3JpdHkwgZ8wDQYJKoZIhvcNAQEBBQADgY0AMIGJAoGB
ALiHTe9u86P85sXh+dYi8e1Q/7oYjcfOJ+NwQDaeoZ+Ky3V7PZ9xBJoYhaYwpknL
2TGYevIHQPKdlnuYc3Gl9nScMh0Kxvmo356h8s3tKi2j5jEzbaMit+o/bXn3DbBF
o4olJH2Q76fdQeXS/VKrEP6NcmQLgIUMJB94JpkP8s0xAgMBAAGjgZcwgZQwDwYD
VR0TAQH/BAUwAwEB/zAOBgNVHQ8BAf8EBAMCAQYwHQYDVR0OBBYEFMu32BUdwHs/
HsguHjLEcmKYXodJMDEGCWCGSAGG+EIBDQQkFiJQdXBwZXQgU2VydmVyIEludGVy
bmFsIENlcnRpZmljYXRlMB8GA1UdIwQYMBaAFF9nnd4zYhG2y+B9il8nVeB4yeLy
MA0GCSqGSIb3DQEBCwUAA4GBAFrVzgOTMALRLy+kKydB7QXKAZWYheQKmV2Kxq/Y
RoGVwvx76RghBHVkP8Vk9vqN7b3YpLUqaSBQ2Y3RKrj8S+Pw70TeSJ/jB4+joK38
pc22zeR2vqvuwpfARD3XDzdIFJ0I21957D2xc1auFW/lWON+Ec+o/TX4fUZUJ0HS
0V6t
-----END CERTIFICATE-----
