Certificate Revocation List (CRL):
        Version 2 (0x1)
        Signature Algorithm: sha256WithRSAEncryption
        Issuer: CN=Test CA Subauthority
        Last Update: Jan  1 00:00:00 1970 GMT
        Next Update: Jan 27 18:43:32 2034 GMT
        CRL extensions:
            X509v3 Authority Key Identifier: 
                keyid:EB:EA:7B:15:C9:4E:08:5B:87:27:09:E4:42:10:54:47:72:E9:38:29

            X509v3 CRL Number: 
                0
Revoked Certificates:
    Serial Number: 08
        Revocation Date: Jan 30 18:43:32 2024 GMT
        CRL entry extensions:
            X509v3 CRL Reason Code: 
                Key Compromise
    Signature Algorithm: sha256WithRSAEncryption
         45:02:fb:e5:98:d2:db:b9:1d:00:55:6f:ca:2a:16:8f:62:5a:
         2b:1f:34:75:1a:7e:84:70:35:92:e9:b9:76:79:88:dc:1c:77:
         c3:2e:3d:e1:05:db:5f:23:ba:09:14:c8:39:4e:58:6d:19:2c:
         c6:16:04:77:ae:5d:a6:09:1f:b2:c5:f5:76:f6:39:4f:7a:b7:
         58:df:4b:ea:6f:6e:bb:54:88:dc:eb:f9:b9:f3:35:50:ed:66:
         1a:53:58:3d:71:16:32:ab:1e:5f:85:90:96:70:72:10:77:90:
         70:b5:5f:15:3e:ef:93:d4:c3:bb:92:cc:45:42:9e:d6:23:c4:
         d2:20:75:08:d8:f4:09:82:56:85:92:83:32:87:0e:5e:85:e8:
         2d:fd:8d:b8:57:9c:b8:3e:e3:83:4e:f0:65:87:ed:db:df:f8:
         7a:ab:92:c7:dd:c4:88:b0:84:4a:dd:1b:14:97:7a:73:51:2b:
         39:61:8a:0d:6d:9b:b4:4e:4e:9e:05:f2:4b:a0:b0:be:29:60:
         12:99:d3:3b:d7:b6:5a:f7:fb:3d:79:01:c0:09:ea:79:32:38:
         fa:4c:12:74:c8:73:39:62:b5:81:83:0e:0a:7c:d1:65:1f:b4:
         ed:14:44:1c:95:5b:42:41:8b:49:f4:d4:0c:5c:82:7c:6d:29:
         4a:c9:1d:a0
-----BEGIN X509 CRL-----
MIIBvTCBpgIBATANBgkqhkiG9w0BAQsFADAfMR0wGwYDVQQDDBRUZXN0IENBIFN1
YmF1dGhvcml0eRcNNzAwMTAxMDAwMDAwWhcNMzQwMTI3MTg0MzMyWjAiMCACAQgX
DTI0MDEzMDE4NDMzMlowDDAKBgNVHRUEAwoBAaAvMC0wHwYDVR0jBBgwFoAU6+p7
FclOCFuHJwnkQhBUR3LpOCkwCgYDVR0UBAMCAQAwDQYJKoZIhvcNAQELBQADggEB
AEUC++WY0tu5HQBVb8oqFo9iWisfNHUafoRwNZLpuXZ5iNwcd8MuPeEF218jugkU
yDlOWG0ZLMYWBHeuXaYJH7LF9Xb2OU96t1jfS+pvbrtUiNzr+bnzNVDtZhpTWD1x
FjKrHl+FkJZwchB3kHC1XxU+75PUw7uSzEVCntYjxNIgdQjY9AmCVoWSgzKHDl6F
6C39jbhXnLg+44NO8GWH7dvf+HqrksfdxIiwhErdGxSXenNRKzlhig1tm7ROTp4F
8kugsL4pYBKZ0zvXtlr3+z15AcAJ6nkyOPpMEnTIczlitYGDDgp80WUftO0URByV
W0JBi0n01AxcgnxtKUrJHaA=
-----END X509 CRL-----
