Certificate:
    Data:
        Version: 3 (0x2)
        Serial Number: 6 (0x6)
    Signature Algorithm: sha256WithRSAEncryption
        Issuer: CN=Test CA
        Validity
            Not Before: Jan  1 00:00:00 1970 GMT
            Not After : Apr 19 22:31:22 2029 GMT
        Subject: CN=Test CA Agent Subauthority
        Subject Public Key Info:
            Public Key Algorithm: rsaEncryption
                Public-Key: (1024 bit)
                Modulus:
                    00:e7:30:19:5b:4d:c2:77:b0:2d:8f:54:19:8d:f5:
                    cf:91:57:48:ae:0d:59:c0:a2:75:d0:d5:11:5b:72:
                    97:c9:8b:45:8e:7b:91:03:1c:57:c5:08:f0:ae:00:
                    da:b0:1b:9a:bd:c3:ee:fd:f6:c2:1d:05:9d:f5:5e:
                    e3:91:bd:c1:80:cd:0a:45:f7:89:32:91:19:31:11:
                    95:a9:14:d3:6b:02:a3:2d:df:68:b8:c4:0e:a3:27:
                    18:e9:22:f1:fa:d4:e8:5a:bc:f1:11:c5:fd:e1:b6:
                    d8:00:e4:82:60:00:37:f9:54:cb:a9:ad:fe:ea:e3:
                    8b:c3:67:07:04:e6:70:b0:45
                Exponent: 65537 (0x10001)
        X509v3 extensions:
            X509v3 Basic Constraints: critical
                CA:TRUE
            X509v3 Key Usage: critical
                Certificate Sign, CRL Sign
            X509v3 Subject Key Identifier: 
                71:55:03:0F:DF:BC:E6:CE:3E:DE:05:DE:06:0F:E1:4F:BA:00:16:8D
            Netscape Comment: 
                Puppet Server Internal Certificate
            X509v3 Authority Key Identifier: 
                keyid:2C:25:19:A1:6C:B3:F7:69:FD:76:9B:3A:22:CB:0C:56:01:01:F1:31

    Signature Algorithm: sha256WithRSAEncryption
         96:88:36:03:b3:7f:ae:df:a6:58:7d:4e:3d:71:22:ab:88:95:
         98:e2:58:45:ab:b3:c7:a6:53:91:43:61:a6:b6:07:0b:65:84:
         3f:41:53:2f:fb:d9:07:06:7a:fe:19:52:11:e8:f0:5e:dd:04:
         62:24:9a:a4:23:4d:58:5c:47:81:3e:e9:ab:5b:ee:92:3e:74:
         6d:21:78:6e:2d:a8:d9:83:0d:91:b8:43:0f:94:3c:c2:47:e9:
         04:55:cc:52:7f:95:2f:5a:21:08:56:a0:f2:88:7d:a0:82:3b:
         6a:96:34:4d:bb:0d:7c:31:16:0f:9b:84:71:34:ee:ec:fe:bf:
         8c:cb
-----BEGIN CERTIFICATE-----
MIICRTCCAa6gAwIBAgIBBjANBgkqhkiG9w0BAQsFADASMRAwDgYDVQQDDAdUZXN0
IENBMB4XDTcwMDEwMTAwMDAwMFoXDTI5MDQxOTIyMzEyMlowJTEjMCEGA1UEAwwa
VGVzdCBDQSBBZ2VudCBTdWJhdXRob3JpdHkwgZ8wDQYJKoZIhvcNAQEBBQADgY0A
MIGJAoGBAOcwGVtNwnewLY9UGY31z5FXSK4NWcCiddDVEVtyl8mLRY57kQMcV8UI
8K4A2rAbmr3D7v32wh0FnfVe45G9wYDNCkX3iTKRGTERlakU02sCoy3faLjEDqMn
GOki8frU6Fq88RHF/eG22ADkgmAAN/lUy6mt/urji8NnBwTmcLBFAgMBAAGjgZcw
gZQwDwYDVR0TAQH/BAUwAwEB/zAOBgNVHQ8BAf8EBAMCAQYwHQYDVR0OBBYEFHFV
Aw/fvObOPt4F3gYP4U+6ABaNMDEGCWCGSAGG+EIBDQQkFiJQdXBwZXQgU2VydmVy
IEludGVybmFsIENlcnRpZmljYXRlMB8GA1UdIwQYMBaAFCwlGaFss/dp/XabOiLL
DFYBAfExMA0GCSqGSIb3DQEBCwUAA4GBAJaINgOzf67fplh9Tj1xIquIlZjiWEWr
s8emU5FDYaa2BwtlhD9BUy/72QcGev4ZUhHo8F7dBGIkmqQjTVhcR4E+6atb7pI+
dG0heG4tqNmDDZG4Qw+UPMJH6QRVzFJ/lS9aIQhWoPKIfaCCO2qWNE27DXwxFg+b
hHE07uz+v4zL
-----END CERTIFICATE-----
