Certificate:
    Data:
        Version: 3 (0x2)
        Serial Number: 9 (0x9)
        Signature Algorithm: sha256WithRSAEncryption
        Issuer: CN=Test CA
        Validity
            Not Before: Jan  1 00:00:00 1970 GMT
            Not After : Jun 15 01:19:37 2031 GMT
        Subject: CN=Test CA Agent Subauthority
        Subject Public Key Info:
            Public Key Algorithm: rsaEncryption
                RSA Public-Key: (2048 bit)
                Modulus:
                    00:ae:c8:f1:11:5e:bd:b9:e8:60:81:9d:7d:00:b3:
                    e6:5b:d4:03:e3:46:a0:e2:8b:e9:1f:ed:06:36:c7:
                    e9:e1:9d:1a:8f:2b:d0:aa:63:00:12:35:44:d4:4d:
                    d2:d8:69:3f:71:14:f0:0b:21:86:ab:93:37:ee:94:
                    af:3a:56:35:95:b5:18:88:3b:25:96:dc:7e:b3:ab:
                    98:58:3b:03:54:90:bf:cf:e5:fc:2a:54:9e:a7:6e:
                    78:dc:36:cb:0f:20:49:c5:b2:61:76:f5:d2:19:d3:
                    7a:c2:82:6e:b4:8b:ff:9f:f1:bb:aa:60:b7:8e:6f:
                    b7:24:f7:39:9f:9b:aa:86:65:8e:67:56:96:79:d3:
                    10:d8:0e:17:39:35:cb:ef:2d:db:c5:a7:7b:30:68:
                    68:65:04:a8:8b:ba:23:49:8a:ce:1e:65:9d:9d:02:
                    3f:5c:4e:1a:3d:ec:af:e4:53:46:c7:9f:17:bd:a2:
                    0c:81:72:78:89:a0:54:2c:7c:53:99:21:03:5c:b7:
                    0b:22:56:19:f2:bb:13:5a:35:22:e1:5b:ec:5a:52:
                    84:f7:e4:69:d9:4f:57:55:c4:e7:40:8c:96:01:e4:
                    19:03:37:bb:1b:1a:ed:a8:f8:0d:35:83:77:31:9f:
                    a8:86:de:f8:97:ee:df:14:5e:ba:94:cd:23:38:0b:
                    6a:f9
                Exponent: 65537 (0x10001)
        X509v3 extensions:
            X509v3 Basic Constraints: critical
                CA:TRUE
            X509v3 Key Usage: critical
                Certificate Sign, CRL Sign
            X509v3 Subject Key Identifier: 
                97:84:A5:C2:28:B4:15:97:89:C4:52:2C:69:8F:7B:75:DD:5F:2A:DC
            Netscape Comment: 
                Puppet Server Internal Certificate
            X509v3 Authority Key Identifier: 
                keyid:B2:EE:24:88:34:99:18:60:81:9E:2A:D3:F4:5A:66:FA:91:F6:E1:C6

    Signature Algorithm: sha256WithRSAEncryption
         73:fd:64:e0:87:64:11:b7:31:9e:e2:03:9d:9d:14:71:f1:f6:
         81:96:78:10:6a:ed:0d:e6:12:57:aa:f8:31:2c:d9:00:83:07:
         58:14:8c:97:2a:23:09:b0:57:56:68:95:d1:e7:0b:76:0b:82:
         95:3a:90:15:3d:ae:cb:18:c0:38:2a:11:3d:04:a1:1f:bb:e9:
         3e:a0:f1:b0:30:78:fb:58:0b:f9:cb:0a:99:2d:2a:a2:50:57:
         6c:ef:b4:e2:c9:38:88:71:31:61:59:7e:10:c9:c9:51:32:d9:
         6e:0b:c0:64:c3:40:eb:51:81:26:c3:1a:51:0b:90:ff:44:0e:
         4f:fe:a7:45:41:00:ea:2a:1e:87:7c:e3:90:8a:2e:19:6c:a4:
         ec:db:e5:19:b0:79:b2:35:75:08:5a:63:30:29:bb:f3:6a:36:
         c7:28:9c:1e:88:a6:97:50:82:71:0d:1b:a0:9b:6f:99:33:60:
         cf:eb:65:60:49:73:6b:81:b6:ee:9c:c7:30:c4:0a:30:43:c1:
         2c:ef:81:3c:d0:e4:9a:1e:72:eb:ed:37:76:f3:fb:8b:00:09:
         f6:53:a6:2f:1a:ba:68:32:f2:48:bb:5d:36:bb:31:05:b7:1c:
         83:d8:ac:c9:af:2c:6f:d5:66:92:e9:f0:3f:1d:c6:fb:fd:37:
         70:90:65:f5
-----BEGIN CERTIFICATE-----
MIIDSjCCAjKgAwIBAgIBCTANBgkqhkiG9w0BAQsFADASMRAwDgYDVQQDDAdUZXN0
IENBMB4XDTcwMDEwMTAwMDAwMFoXDTMxMDYxNTAxMTkzN1owJTEjMCEGA1UEAwwa
VGVzdCBDQSBBZ2VudCBTdWJhdXRob3JpdHkwggEiMA0GCSqGSIb3DQEBAQUAA4IB
DwAwggEKAoIBAQCuyPERXr256GCBnX0As+Zb1APjRqDii+kf7QY2x+nhnRqPK9Cq
YwASNUTUTdLYaT9xFPALIYarkzfulK86VjWVtRiIOyWW3H6zq5hYOwNUkL/P5fwq
VJ6nbnjcNssPIEnFsmF29dIZ03rCgm60i/+f8buqYLeOb7ck9zmfm6qGZY5nVpZ5
0xDYDhc5NcvvLdvFp3swaGhlBKiLuiNJis4eZZ2dAj9cTho97K/kU0bHnxe9ogyB
cniJoFQsfFOZIQNctwsiVhnyuxNaNSLhW+xaUoT35GnZT1dVxOdAjJYB5BkDN7sb
Gu2o+A01g3cxn6iG3viX7t8UXrqUzSM4C2r5AgMBAAGjgZcwgZQwDwYDVR0TAQH/
BAUwAwEB/zAOBgNVHQ8BAf8EBAMCAQYwHQYDVR0OBBYEFJeEpcIotBWXicRSLGmP
e3XdXyrcMDEGCWCGSAGG+EIBDQQkFiJQdXBwZXQgU2VydmVyIEludGVybmFsIENl
cnRpZmljYXRlMB8GA1UdIwQYMBaAFLLuJIg0mRhggZ4q0/RaZvqR9uHGMA0GCSqG
SIb3DQEBCwUAA4IBAQBz/WTgh2QRtzGe4gOdnRRx8faBlngQau0N5hJXqvgxLNkA
gwdYFIyXKiMJsFdWaJXR5wt2C4KVOpAVPa7LGMA4KhE9BKEfu+k+oPGwMHj7WAv5
ywqZLSqiUFds77TiyTiIcTFhWX4QyclRMtluC8Bkw0DrUYEmwxpRC5D/RA5P/qdF
QQDqKh6HfOOQii4ZbKTs2+UZsHmyNXUIWmMwKbvzajbHKJweiKaXUIJxDRugm2+Z
M2DP62VgSXNrgbbunMcwxAowQ8Es74E80OSaHnLr7Td28/uLAAn2U6YvGrpoMvJI
u102uzEFtxyD2KzJryxv1WaS6fA/Hcb7/TdwkGX1
-----END CERTIFICATE-----
