Certificate:
    Data:
        Version: 3 (0x2)
        Serial Number: 5 (0x5)
    Signature Algorithm: sha256WithRSAEncryption
        Issuer: CN=Test CA
        Validity
            Not Before: Jan  1 00:00:00 1970 GMT
            Not After : Mar  9 21:35:53 2029 GMT
        Subject: CN=Test CA Agent Subauthority
        Subject Public Key Info:
            Public Key Algorithm: rsaEncryption
                Public-Key: (1024 bit)
                Modulus:
                    00:b5:ed:95:5b:eb:9e:9c:18:b2:6b:d6:a5:93:54:
                    29:cd:37:90:3b:2a:ce:ad:b8:1d:44:85:6b:7c:5f:
                    68:e4:a6:97:c0:cf:cc:f3:b5:28:cb:d5:c3:5f:f1:
                    2b:1b:96:99:9a:05:eb:72:b9:48:6f:83:5c:12:a7:
                    1f:14:16:db:51:6c:84:a5:64:76:89:28:53:64:61:
                    32:02:af:3f:b8:f9:5f:66:2c:2a:b9:63:37:24:57:
                    c2:46:8a:e7:fe:cc:14:b6:50:2b:6d:f9:4d:5f:7d:
                    3e:68:1c:c3:11:06:01:d9:d8:31:7d:08:a5:75:b5:
                    dd:11:10:2f:e1:e4:8a:5a:d3
                Exponent: 65537 (0x10001)
        X509v3 extensions:
            X509v3 Basic Constraints: critical
                CA:TRUE
            X509v3 Key Usage: critical
                Certificate Sign, CRL Sign
            X509v3 Subject Key Identifier: 
                4C:8D:DA:6C:26:2B:12:AF:11:85:FD:26:DF:21:F5:E4:1D:AE:CD:81
            Netscape Comment: 
                Puppet Server Internal Certificate
            X509v3 Authority Key Identifier: 
                keyid:93:70:43:DA:C0:AA:14:71:0F:93:EB:82:E7:F5:AE:C9:D2:1A:78:77

    Signature Algorithm: sha256WithRSAEncryption
         85:84:ab:76:ae:37:77:e7:0d:f0:6b:43:57:5a:7f:98:81:e0:
         5d:81:3a:a6:ec:04:01:f4:e0:e1:e8:96:43:a4:f5:2f:93:9c:
         4c:0b:e6:53:ce:c8:ff:a1:b6:0e:e5:0b:62:87:10:40:fb:bb:
         29:a6:c9:df:ec:52:59:77:07:91:ef:cc:29:97:86:ed:5f:9f:
         34:ad:20:33:3c:39:1d:e5:58:d7:1c:0b:91:1c:3b:b1:a7:8d:
         bc:fb:b9:27:f9:1d:3f:f9:54:a6:63:83:73:4c:63:97:23:21:
         62:ae:c5:a6:e6:f7:4c:24:bc:e1:e9:cb:d5:37:42:15:a3:78:
         5d:33
-----BEGIN CERTIFICATE-----
MIICRTCCAa6gAwIBAgIBBTANBgkqhkiG9w0BAQsFADASMRAwDgYDVQQDDAdUZXN0
IENBMB4XDTcwMDEwMTAwMDAwMFoXDTI5MDMwOTIxMzU1M1owJTEjMCEGA1UEAwwa
VGVzdCBDQSBBZ2VudCBTdWJhdXRob3JpdHkwgZ8wDQYJKoZIhvcNAQEBBQADgY0A
MIGJAoGBALXtlVvrnpwYsmvWpZNUKc03kDsqzq24HUSFa3xfaOSml8DPzPO1KMvV
w1/xKxuWmZoF63K5SG+DXBKnHxQW21FshKVkdokoU2RhMgKvP7j5X2YsKrljNyRX
wkaK5/7MFLZQK235TV99PmgcwxEGAdnYMX0IpXW13REQL+HkilrTAgMBAAGjgZcw
gZQwDwYDVR0TAQH/BAUwAwEB/zAOBgNVHQ8BAf8EBAMCAQYwHQYDVR0OBBYEFEyN
2mwmKxKvEYX9Jt8h9eQdrs2BMDEGCWCGSAGG+EIBDQQkFiJQdXBwZXQgU2VydmVy
IEludGVybmFsIENlcnRpZmljYXRlMB8GA1UdIwQYMBaAFJNwQ9rAqhRxD5Prguf1
rsnSGnh3MA0GCSqGSIb3DQEBCwUAA4GBAIWEq3auN3fnDfBrQ1daf5iB4F2BOqbs
BAH04OHolkOk9S+TnEwL5lPOyP+htg7lC2KHEED7uymmyd/sUll3B5HvzCmXhu1f
nzStIDM8OR3lWNccC5EcO7Gnjbz7uSf5HT/5VKZjg3NMY5cjIWKuxabm90wkvOHp
y9U3QhWjeF0z
-----END CERTIFICATE-----
