Certificate Revocation List (CRL):
        Version 2 (0x1)
        Signature Algorithm: sha256WithRSAEncryption
        Issuer: CN=Test CA Agent Subauthority
        Last Update: Jan  1 00:00:00 1970 GMT
        Next Update: Jun 24 21:18:00 2033 GMT
        CRL extensions:
            X509v3 Authority Key Identifier: 
                92:84:BC:BD:F2:05:CC:1C:E3:00:5A:75:B1:A4:67:A9:31:08:9A:F2
            X509v3 CRL Number: 
                0
No Revoked Certificates.
    Signature Algorithm: sha256WithRSAEncryption
    Signature Value:
        78:e1:8b:90:01:c2:44:ae:09:0b:a0:d3:09:c7:3b:cc:10:bc:
        87:4a:e2:85:76:45:8e:31:2c:96:3c:97:7b:ec:5a:4b:0d:ae:
        30:e6:5f:53:18:ce:88:88:21:f9:4d:ff:00:07:14:37:d3:c1:
        04:f7:03:55:29:59:60:95:ec:b7:d8:ad:0b:7f:b0:6a:7f:ec:
        93:ac:52:ee:18:e3:85:d3:d1:82:c2:19:87:ae:2c:84:d1:e7:
        59:dd:92:7b:84:bb:b9:ab:54:01:4f:84:71:80:53:36:b9:15:
        43:a1:da:e3:ea:3b:d0:65:54:8d:4e:52:5f:6d:9b:28:47:20:
        ce:be:bd:dd:e7:77:8c:43:f4:cd:83:d0:81:83:63:47:38:9f:
        29:fd:fd:c5:ea:e2:28:1f:22:be:57:c5:82:6c:45:62:00:ea:
        fc:4b:69:b9:d0:b2:02:7f:20:4e:d2:c4:ae:e1:96:7a:2e:bd:
        85:d7:f7:47:e2:00:da:4c:0a:ca:c2:4f:05:be:49:92:7c:4b:
        6d:39:48:1f:ab:83:de:a2:12:04:85:85:57:b0:78:7e:69:07:
        ff:3b:bc:d8:53:74:94:e5:21:34:5b:30:09:08:9b:3e:f9:cd:
        84:14:e0:51:46:5f:23:34:6c:47:d0:57:71:f9:b9:9c:94:c7:
        df:4c:f5:2c
-----BEGIN X509 CRL-----
MIIBnzCBiAIBATANBgkqhkiG9w0BAQsFADAlMSMwIQYDVQQDDBpUZXN0IENBIEFn
ZW50IFN1YmF1dGhvcml0eRcNNzAwMTAxMDAwMDAwWhcNMzMwNjI0MjExODAwWqAv
MC0wHwYDVR0jBBgwFoAUkoS8vfIFzBzjAFp1saRnqTEImvIwCgYDVR0UBAMCAQAw
DQYJKoZIhvcNAQELBQADggEBAHjhi5ABwkSuCQug0wnHO8wQvIdK4oV2RY4xLJY8
l3vsWksNrjDmX1MYzoiIIflN/wAHFDfTwQT3A1UpWWCV7LfYrQt/sGp/7JOsUu4Y
44XT0YLCGYeuLITR51ndknuEu7mrVAFPhHGAUza5FUOh2uPqO9BlVI1OUl9tmyhH
IM6+vd3nd4xD9M2D0IGDY0c4nyn9/cXq4igfIr5XxYJsRWIA6vxLabnQsgJ/IE7S
xK7hlnouvYXX90fiANpMCsrCTwW+SZJ8S205SB+rg96iEgSFhVeweH5pB/87vNhT
dJTlITRbMAkImz75zYQU4FFGXyM0bEfQV3H5uZyUx99M9Sw=
-----END X509 CRL-----
