Certificate:
    Data:
        Version: 3 (0x2)
        Serial Number: 10 (0xa)
        Signature Algorithm: sha256WithRSAEncryption
        Issuer: CN=Test CA
        Validity
            Not Before: Jan  1 00:00:00 1970 GMT
            Not After : Jun 24 21:18:00 2033 GMT
        Subject: CN=Test CA Agent Subauthority
        Subject Public Key Info:
            Public Key Algorithm: rsaEncryption
                Public-Key: (2048 bit)
                Modulus:
                    00:ab:b8:fb:97:80:ff:7b:4a:ff:d9:6f:f6:8e:10:
                    4c:d9:ea:0b:66:ed:3d:45:6f:06:cb:d8:ce:56:6c:
                    3e:5a:c2:1b:fd:7a:ff:48:1c:0c:3e:a2:3a:f4:57:
                    20:92:a5:35:98:4a:19:1b:8c:71:ce:0c:29:61:ca:
                    58:9c:52:03:ef:73:3f:e4:66:8c:ac:00:d8:1e:4e:
                    06:45:db:72:ac:59:63:05:30:6a:17:bd:f1:81:6c:
                    e3:74:4d:90:a5:04:50:24:2a:c4:8e:9d:3f:45:c9:
                    2e:47:03:f8:69:ad:49:b7:06:78:4a:dd:0d:e2:9b:
                    f1:48:1b:81:4a:ef:5d:3e:28:44:49:4c:d8:53:25:
                    f6:ca:1f:f6:76:86:97:b3:44:91:69:f2:c5:94:48:
                    5d:3c:4a:21:e3:7e:a7:76:b6:14:bc:00:ac:58:92:
                    b2:c6:83:cb:66:fd:8e:f8:89:23:c0:f2:5b:f9:74:
                    6a:8d:0c:32:7e:dd:6e:75:38:c3:06:6c:ad:56:5d:
                    3c:1f:40:80:c4:0b:2c:09:fc:c1:e2:d6:60:44:9f:
                    8b:86:29:42:27:c0:67:d8:1e:2d:d8:8f:a8:55:94:
                    7f:90:75:0c:27:52:ff:66:34:bd:74:49:54:f4:dd:
                    32:b4:ce:b7:67:61:bb:45:8f:54:c0:27:ce:33:54:
                    40:8f
                Exponent: 65537 (0x10001)
        X509v3 extensions:
            X509v3 Basic Constraints: critical
                CA:TRUE
            X509v3 Key Usage: critical
                Certificate Sign, CRL Sign
            X509v3 Subject Key Identifier: 
                92:84:BC:BD:F2:05:CC:1C:E3:00:5A:75:B1:A4:67:A9:31:08:9A:F2
            Netscape Comment: 
                Puppet Server Internal Certificate
            X509v3 Authority Key Identifier: 
                83:68:26:16:4A:C3:88:0A:A6:48:43:98:E7:2D:4F:5F:70:8C:62:B2
    Signature Algorithm: sha256WithRSAEncryption
    Signature Value:
        89:7e:9c:5b:0f:48:35:ef:96:2c:4c:f9:c0:11:49:4c:5e:7a:
        da:d3:e0:0a:11:f0:a3:55:1e:46:c1:d9:79:43:0c:00:2d:1f:
        20:21:2a:0c:3b:a6:17:7b:6c:f2:74:8e:90:93:64:f9:0c:33:
        0b:23:7d:a2:0c:0e:fd:82:ed:22:9b:d0:5f:bc:10:49:9d:ab:
        2b:50:65:11:81:ee:3f:dc:48:49:2c:cf:41:e6:af:4f:34:8b:
        da:47:b8:65:55:4f:85:bc:25:0e:e7:f5:ec:07:46:1c:19:03:
        e2:6a:8a:95:7d:99:26:f1:66:46:35:7d:96:93:4d:e3:8f:1a:
        c2:71:fe:3c:a9:45:c0:18:d8:43:d3:6c:68:56:b9:e4:04:15:
        52:ea:4e:b3:d3:78:e9:87:51:18:f8:bd:b1:87:3a:59:ac:e4:
        e1:ed:55:eb:de:27:85:a8:38:bc:ba:96:57:c3:9c:ec:64:65:
        23:19:ec:f6:a6:c1:ce:83:08:13:a4:c5:fe:d0:e5:67:e3:70:
        8b:96:84:b6:d4:4e:c4:43:60:d8:70:54:93:cd:24:44:ea:d5:
        e9:f6:35:ee:a4:66:b4:2a:e0:5a:c1:7e:ad:e8:63:44:19:3e:
        9d:49:61:50:91:d9:15:31:61:9c:59:68:d6:d3:5d:82:58:8c:
        60:03:82:4e
-----BEGIN CERTIFICATE-----
MIIDSjCCAjKgAwIBAgIBCjANBgkqhkiG9w0BAQsFADASMRAwDgYDVQQDDAdUZXN0
IENBMB4XDTcwMDEwMTAwMDAwMFoXDTMzMDYyNDIxMTgwMFowJTEjMCEGA1UEAwwa
VGVzdCBDQSBBZ2VudCBTdWJhdXRob3JpdHkwggEiMA0GCSqGSIb3DQEBAQUAA4IB
DwAwggEKAoIBAQCruPuXgP97Sv/Zb/aOEEzZ6gtm7T1FbwbL2M5WbD5awhv9ev9I
HAw+ojr0VyCSpTWYShkbjHHODClhylicUgPvcz/kZoysANgeTgZF23KsWWMFMGoX
vfGBbON0TZClBFAkKsSOnT9FyS5HA/hprUm3BnhK3Q3im/FIG4FK710+KERJTNhT
JfbKH/Z2hpezRJFp8sWUSF08SiHjfqd2thS8AKxYkrLGg8tm/Y74iSPA8lv5dGqN
DDJ+3W51OMMGbK1WXTwfQIDECywJ/MHi1mBEn4uGKUInwGfYHi3Yj6hVlH+QdQwn
Uv9mNL10SVT03TK0zrdnYbtFj1TAJ84zVECPAgMBAAGjgZcwgZQwDwYDVR0TAQH/
BAUwAwEB/zAOBgNVHQ8BAf8EBAMCAQYwHQYDVR0OBBYEFJKEvL3yBcwc4wBadbGk
Z6kxCJryMDEGCWCGSAGG+EIBDQQkFiJQdXBwZXQgU2VydmVyIEludGVybmFsIENl
cnRpZmljYXRlMB8GA1UdIwQYMBaAFINoJhZKw4gKpkhDmOctT19wjGKyMA0GCSqG
SIb3DQEBCwUAA4IBAQCJfpxbD0g175YsTPnAEUlMXnra0+AKEfCjVR5Gwdl5QwwA
LR8gISoMO6YXe2zydI6Qk2T5DDMLI32iDA79gu0im9BfvBBJnasrUGURge4/3EhJ
LM9B5q9PNIvaR7hlVU+FvCUO5/XsB0YcGQPiaoqVfZkm8WZGNX2Wk03jjxrCcf48
qUXAGNhD02xoVrnkBBVS6k6z03jph1EY+L2xhzpZrOTh7VXr3ieFqDi8upZXw5zs
ZGUjGez2psHOgwgTpMX+0OVn43CLloS21E7EQ2DYcFSTzSRE6tXp9jXupGa0KuBa
wX6t6GNEGT6dSWFQkdkVMWGcWWjW012CWIxgA4JO
-----END CERTIFICATE-----
