Certificate:
    Data:
        Version: 3 (0x2)
        Serial Number: 8 (0x8)
        Signature Algorithm: sha256WithRSAEncryption
        Issuer: CN=Test CA
        Validity
            Not Before: Jan  1 00:00:00 1970 GMT
            Not After : Apr 18 18:46:23 2031 GMT
        Subject: CN=Test CA Agent Subauthority
        Subject Public Key Info:
            Public Key Algorithm: rsaEncryption
                RSA Public-Key: (2048 bit)
                Modulus:
                    00:c8:76:0f:6b:12:72:bc:6a:03:90:71:fa:b3:01:
                    69:bd:d5:d0:64:74:b9:6b:a0:3e:9e:fc:ea:25:c7:
                    5f:da:c9:95:1e:f8:dc:63:74:f9:3d:ee:28:fe:70:
                    e9:e8:62:d2:1b:ac:3e:ab:42:a7:2a:95:2b:b4:22:
                    43:7d:68:1a:c0:39:4f:7a:0c:45:2b:41:4c:de:14:
                    d2:9e:1f:e5:ce:85:2d:db:d6:7f:25:b0:9b:94:f8:
                    e4:ed:11:2e:cd:9c:c8:5d:15:bb:11:96:ec:e0:3e:
                    9a:af:b3:26:50:5d:9c:5f:29:6b:3a:cc:ff:21:07:
                    e5:13:99:e5:c0:f7:34:ca:7b:49:f4:ba:dc:41:29:
                    65:db:65:e9:61:7a:f4:17:18:fc:ab:70:a5:de:22:
                    32:ab:24:63:5c:14:25:48:88:ee:36:33:0b:36:81:
                    77:d7:ac:1d:75:d6:09:95:54:ef:f2:52:a2:52:15:
                    58:ce:4e:9e:aa:6f:46:a2:fb:58:30:62:97:4e:80:
                    87:82:89:f9:22:ab:95:8e:17:bf:64:b5:6f:0e:5f:
                    54:c3:b0:4a:fa:d3:99:38:00:f7:b1:f6:a9:2c:b1:
                    c9:ba:3c:07:b7:5c:91:1a:0f:3d:34:74:3f:58:e2:
                    fa:8d:66:38:a7:a6:af:f2:a7:f2:f1:95:7a:a0:49:
                    18:19
                Exponent: 65537 (0x10001)
        X509v3 extensions:
            X509v3 Basic Constraints: critical
                CA:TRUE
            X509v3 Key Usage: critical
                Certificate Sign, CRL Sign
            X509v3 Subject Key Identifier: 
                30:5C:E0:85:AC:BF:77:41:18:C8:05:24:E3:0A:3E:71:66:1A:95:82
            Netscape Comment: 
                Puppet Server Internal Certificate
            X509v3 Authority Key Identifier: 
                keyid:61:DF:EE:CE:DA:49:6B:5E:F3:EF:94:FE:F9:DC:C7:C0:5A:74:FE:DB

    Signature Algorithm: sha256WithRSAEncryption
         af:6b:69:42:d0:c9:88:83:80:46:fe:d7:0c:dc:cc:81:8a:f9:
         f0:21:15:53:fa:fa:f2:95:dd:53:17:d6:b5:cc:2d:f8:64:b6:
         19:62:c7:3e:7e:75:4f:89:b5:00:c2:3d:b2:3c:51:29:31:5b:
         a0:32:9f:76:5a:1f:36:06:64:47:9b:9a:dd:93:3c:c4:32:7e:
         3e:f8:19:32:72:ac:ac:e7:fe:a5:06:4a:ee:72:9c:c0:d9:36:
         72:5a:5f:af:41:c5:9a:4f:0c:ed:22:db:1f:86:b1:f4:ae:54:
         a1:93:ba:26:b5:93:15:31:ec:a9:d9:2f:94:61:e3:fc:67:69:
         6b:01:54:02:36:93:d0:73:ae:64:5d:b4:ec:87:65:99:f6:04:
         7b:b1:d0:51:fc:b3:9e:b1:63:53:c4:cf:38:2c:19:42:69:bd:
         10:08:a2:92:87:f8:58:7a:9b:cc:cd:f7:41:a2:2f:6a:a1:45:
         48:70:6e:7a:39:a3:8d:96:ae:ea:65:ea:ab:b6:06:72:0b:f7:
         76:c0:6e:a0:ad:48:f1:73:7c:22:91:11:eb:88:24:f6:5e:ec:
         84:5f:65:51:57:43:a6:c6:38:65:d5:c3:7a:f1:4e:b3:54:62:
         1b:f3:16:30:c3:b3:c6:cf:f1:a6:f8:f2:d8:c6:d0:f7:2a:18:
         06:f5:a3:ed
-----BEGIN CERTIFICATE-----
MIIDSjCCAjKgAwIBAgIBCDANBgkqhkiG9w0BAQsFADASMRAwDgYDVQQDDAdUZXN0
IENBMB4XDTcwMDEwMTAwMDAwMFoXDTMxMDQxODE4NDYyM1owJTEjMCEGA1UEAwwa
VGVzdCBDQSBBZ2VudCBTdWJhdXRob3JpdHkwggEiMA0GCSqGSIb3DQEBAQUAA4IB
DwAwggEKAoIBAQDIdg9rEnK8agOQcfqzAWm91dBkdLlroD6e/Oolx1/ayZUe+Nxj
dPk97ij+cOnoYtIbrD6rQqcqlSu0IkN9aBrAOU96DEUrQUzeFNKeH+XOhS3b1n8l
sJuU+OTtES7NnMhdFbsRluzgPpqvsyZQXZxfKWs6zP8hB+UTmeXA9zTKe0n0utxB
KWXbZelhevQXGPyrcKXeIjKrJGNcFCVIiO42Mws2gXfXrB111gmVVO/yUqJSFVjO
Tp6qb0ai+1gwYpdOgIeCifkiq5WOF79ktW8OX1TDsEr605k4APex9qksscm6PAe3
XJEaDz00dD9Y4vqNZjinpq/yp/LxlXqgSRgZAgMBAAGjgZcwgZQwDwYDVR0TAQH/
BAUwAwEB/zAOBgNVHQ8BAf8EBAMCAQYwHQYDVR0OBBYEFDBc4IWsv3dBGMgFJOMK
PnFmGpWCMDEGCWCGSAGG+EIBDQQkFiJQdXBwZXQgU2VydmVyIEludGVybmFsIENl
cnRpZmljYXRlMB8GA1UdIwQYMBaAFGHf7s7aSWte8++U/vncx8BadP7bMA0GCSqG
SIb3DQEBCwUAA4IBAQCva2lC0MmIg4BG/tcM3MyBivnwIRVT+vryld1TF9a1zC34
ZLYZYsc+fnVPibUAwj2yPFEpMVugMp92Wh82BmRHm5rdkzzEMn4++Bkycqys5/6l
BkrucpzA2TZyWl+vQcWaTwztItsfhrH0rlShk7omtZMVMeyp2S+UYeP8Z2lrAVQC
NpPQc65kXbTsh2WZ9gR7sdBR/LOesWNTxM84LBlCab0QCKKSh/hYepvMzfdBoi9q
oUVIcG56OaONlq7qZeqrtgZyC/d2wG6grUjxc3wikRHriCT2XuyEX2VRV0Omxjhl
1cN68U6zVGIb8xYww7PGz/Gm+PLYxtD3KhgG9aPt
-----END CERTIFICATE-----
