Certificate Revocation List (CRL):
        Version 2 (0x1)
        Signature Algorithm: sha256WithRSAEncryption
        Issuer: CN=Test CA Subauthority
        Last Update: Jan  1 00:00:00 1970 GMT
        Next Update: Jun 15 01:19:37 2031 GMT
        CRL extensions:
            X509v3 Authority Key Identifier: 
                keyid:59:79:27:C1:94:D7:09:B0:B2:1C:23:44:22:E2:25:25:1B:83:5F:34

            X509v3 CRL Number: 
                0
Revoked Certificates:
    Serial Number: 07
        Revocation Date: Jun 17 01:19:38 2021 GMT
        CRL entry extensions:
            X509v3 CRL Reason Code: 
                Key Compromise
    Signature Algorithm: sha256WithRSAEncryption
         82:21:ef:06:be:b2:af:42:d5:6a:bf:e3:47:f2:b8:77:fe:76:
         14:a4:08:51:ae:27:92:4a:fd:20:cb:57:58:1c:ae:f0:15:3b:
         33:ff:05:5e:77:20:a0:0a:34:2f:c0:d6:15:02:b3:72:7e:58:
         08:ec:ad:db:b6:4b:a2:89:97:bf:9a:8e:08:c2:0b:ed:82:4d:
         cf:ee:1a:62:02:df:46:3e:03:55:39:56:64:33:ab:dd:be:54:
         fa:d9:cd:c8:65:a6:26:09:ef:12:f2:92:d3:aa:7f:88:c4:4c:
         7e:35:9e:64:11:8c:a2:46:c9:cc:f8:29:56:22:88:0e:94:96:
         e4:5c:4b:e7:ae:4d:1c:96:80:73:60:e3:69:a3:3a:61:ca:d4:
         b6:2e:1c:e9:c6:93:e7:8c:5a:ae:b0:c9:92:51:0f:2c:b0:54:
         43:e7:cf:14:4f:b5:e2:0c:ae:11:19:f2:a4:55:6f:3b:1d:3a:
         47:d2:ee:0a:71:9b:a5:2d:41:6e:97:8f:02:ff:9f:13:20:c7:
         6c:67:a5:47:c8:c2:27:a6:8b:66:56:3e:dd:d3:27:f9:8d:21:
         73:20:c9:f1:e3:70:8f:72:e5:f8:6c:60:7d:c5:71:03:4c:ce:
         72:8e:78:2d:30:f8:44:1a:4b:41:d3:f5:f4:31:c6:c3:89:cb:
         88:da:b3:a0
-----BEGIN X509 CRL-----
MIIBvTCBpgIBATANBgkqhkiG9w0BAQsFADAfMR0wGwYDVQQDDBRUZXN0IENBIFN1
YmF1dGhvcml0eRcNNzAwMTAxMDAwMDAwWhcNMzEwNjE1MDExOTM3WjAiMCACAQcX
DTIxMDYxNzAxMTkzOFowDDAKBgNVHRUEAwoBAaAvMC0wHwYDVR0jBBgwFoAUWXkn
wZTXCbCyHCNEIuIlJRuDXzQwCgYDVR0UBAMCAQAwDQYJKoZIhvcNAQELBQADggEB
AIIh7wa+sq9C1Wq/40fyuHf+dhSkCFGuJ5JK/SDLV1gcrvAVOzP/BV53IKAKNC/A
1hUCs3J+WAjsrdu2S6KJl7+ajgjCC+2CTc/uGmIC30Y+A1U5VmQzq92+VPrZzchl
piYJ7xLyktOqf4jETH41nmQRjKJGycz4KVYiiA6UluRcS+euTRyWgHNg42mjOmHK
1LYuHOnGk+eMWq6wyZJRDyywVEPnzxRPteIMrhEZ8qRVbzsdOkfS7gpxm6UtQW6X
jwL/nxMgx2xnpUfIwiemi2ZWPt3TJ/mNIXMgyfHjcI9y5fhsYH3FcQNMznKOeC0w
+EQaS0HT9fQxxsOJy4jas6A=
-----END X509 CRL-----
