Certificate Revocation List (CRL):
        Version 2 (0x1)
    Signature Algorithm: sha256WithRSAEncryption
        Issuer: /CN=Test CA Subauthority
        Last Update: Jan  1 00:00:00 1970 GMT
        Next Update: Mar  9 21:35:53 2029 GMT
        CRL extensions:
            X509v3 Authority Key Identifier: 
                keyid:7A:E0:53:6E:4C:00:F4:DE:3D:74:3A:37:BA:CD:25:7A:C2:BC:44:0A

            X509v3 CRL Number: 
                0
Revoked Certificates:
    Serial Number: 04
        Revocation Date: Mar 12 21:35:53 2019 GMT
        CRL entry extensions:
            X509v3 CRL Reason Code: 
                Key Compromise
    Signature Algorithm: sha256WithRSAEncryption
         01:4f:22:9c:6d:6d:35:4a:8f:9e:44:09:a2:f8:2a:e9:85:3d:
         cb:4d:c3:4e:9a:59:14:85:b5:1a:2b:de:d8:02:d8:56:b9:0d:
         48:e3:5f:65:a3:33:c8:f0:72:6b:4c:33:a1:07:45:a7:b3:fd:
         30:07:b2:5e:45:4b:82:6a:9a:d0:8e:73:51:72:6d:57:2b:5a:
         97:fc:00:20:f4:8f:7f:1c:6e:07:f1:42:01:7f:52:24:22:28:
         bf:99:c4:43:23:57:f7:18:68:6c:63:d8:e4:8f:57:e1:9a:41:
         82:b0:c0:a9:c3:39:d5:9c:5b:db:33:a7:f9:f4:ad:0f:65:b0:
         fc:8e
-----BEGIN X509 CRL-----
MIIBPDCBpgIBATANBgkqhkiG9w0BAQsFADAfMR0wGwYDVQQDDBRUZXN0IENBIFN1
YmF1dGhvcml0eRcNNzAwMTAxMDAwMDAwWhcNMjkwMzA5MjEzNTUzWjAiMCACAQQX
DTE5MDMxMjIxMzU1M1owDDAKBgNVHRUEAwoBAaAvMC0wHwYDVR0jBBgwFoAUeuBT
bkwA9N49dDo3us0lesK8RAowCgYDVR0UBAMCAQAwDQYJKoZIhvcNAQELBQADgYEA
AU8inG1tNUqPnkQJovgq6YU9y03DTppZFIW1Give2ALYVrkNSONfZaMzyPBya0wz
oQdFp7P9MAeyXkVLgmqa0I5zUXJtVytal/wAIPSPfxxuB/FCAX9SJCIov5nEQyNX
9xhobGPY5I9X4ZpBgrDAqcM51Zxb2zOn+fStD2Ww/I4=
-----END X509 CRL-----
