Certificate:
    Data:
        Version: 3 (0x2)
        Serial Number: 10 (0xa)
        Signature Algorithm: sha256WithRSAEncryption
        Issuer: CN=Test CA
        Validity
            Not Before: Jan  1 00:00:00 1970 GMT
            Not After : Jan 27 18:43:32 2034 GMT
        Subject: CN=Test CA Agent Subauthority
        Subject Public Key Info:
            Public Key Algorithm: rsaEncryption
                RSA Public-Key: (2048 bit)
                Modulus:
                    00:a5:a5:c5:33:81:1d:c3:9f:fc:10:26:db:e0:81:
                    cd:2d:fe:0f:b0:74:16:51:2a:39:c1:3b:10:ca:27:
                    ef:c6:ea:e7:95:a3:05:bd:24:dc:cb:2a:46:2e:87:
                    cb:dc:b1:dc:d4:52:fd:86:a2:ec:f2:03:2b:97:aa:
                    a5:38:35:45:02:5d:17:f1:0e:e8:45:57:d9:99:9e:
                    d6:74:32:ce:f4:87:87:f7:d6:22:12:cd:a7:40:56:
                    00:a5:d7:d2:8e:be:91:69:c2:6c:89:02:f7:b5:ef:
                    56:66:49:32:fc:f8:a0:f1:f2:d0:56:1b:cc:bc:5c:
                    33:4b:fd:c9:9e:0f:55:bd:4f:ef:46:57:26:72:61:
                    94:ae:a7:85:5b:91:53:d2:1c:ba:b8:19:44:ee:b5:
                    ca:34:dd:95:6b:8b:de:61:75:3d:6e:c9:79:f0:38:
                    00:08:56:6b:b4:b0:4e:34:c2:45:ca:6a:25:33:65:
                    0a:1f:95:2b:5b:71:a6:fe:af:ff:94:a5:14:6d:ca:
                    1a:d3:6b:2d:44:e1:74:45:24:50:e1:cd:00:bb:0f:
                    0d:fe:20:27:f8:14:c6:2b:ea:3a:b9:50:5c:a4:de:
                    c3:90:ee:7b:b6:d3:82:d4:06:4f:af:d8:b0:d7:a7:
                    d4:64:45:75:1f:ba:12:77:18:aa:de:6c:29:fe:e0:
                    ea:bb
                Exponent: 65537 (0x10001)
        X509v3 extensions:
            X509v3 Basic Constraints: critical
                CA:TRUE
            X509v3 Key Usage: critical
                Certificate Sign, CRL Sign
            X509v3 Subject Key Identifier: 
                48:07:33:D5:80:0C:18:AD:FD:7A:04:33:84:8F:A8:B2:D9:88:18:9A
            Netscape Comment: 
                Puppet Server Internal Certificate
            X509v3 Authority Key Identifier: 
                keyid:58:D3:6E:35:36:97:04:91:6A:B6:DF:45:80:9A:53:B3:E4:36:C8:3D

    Signature Algorithm: sha256WithRSAEncryption
         b3:91:b4:7f:0b:b9:c3:7a:60:cf:e9:94:55:f1:12:7d:fb:f5:
         1f:4b:0a:39:2d:70:9a:8d:ad:fa:98:b6:db:6a:80:a5:1b:23:
         6f:7e:85:c1:62:11:44:8d:8a:bb:76:35:58:19:a2:e5:e2:43:
         e7:17:75:b8:b7:74:fd:a2:b4:70:d8:76:b6:f0:e0:be:83:65:
         85:ce:e9:92:5a:23:aa:f5:f5:ef:6b:d9:c3:ec:94:7d:ca:de:
         18:75:91:23:90:14:c4:a7:0f:e6:e0:a7:b1:2c:af:9b:71:7f:
         9e:f6:91:78:db:25:77:16:42:92:cc:d8:a8:b0:5e:d2:98:69:
         56:0e:b8:6a:ef:c9:b8:e5:37:2c:12:47:a8:53:31:3e:0e:1a:
         48:85:9e:46:39:e3:60:40:5e:db:28:21:fa:8a:af:83:d7:c6:
         62:b6:16:36:2e:3d:58:0e:96:21:88:d1:1a:e7:d6:74:4c:ee:
         c0:02:e0:51:c1:c6:1f:bd:c8:83:38:eb:86:e1:45:a4:f6:a0:
         9e:bd:62:e5:75:c2:e4:9c:3a:b7:cb:28:03:5c:7c:ff:28:3f:
         80:22:4b:ae:6c:8c:9c:9f:71:8b:0c:93:42:85:50:20:7d:ca:
         a3:84:4f:e2:a0:ce:48:69:fd:8f:ef:3c:0c:55:a8:f0:5c:9f:
         e8:37:48:65
-----BEGIN CERTIFICATE-----
MIIDSjCCAjKgAwIBAgIBCjANBgkqhkiG9w0BAQsFADASMRAwDgYDVQQDDAdUZXN0
IENBMB4XDTcwMDEwMTAwMDAwMFoXDTM0MDEyNzE4NDMzMlowJTEjMCEGA1UEAwwa
VGVzdCBDQSBBZ2VudCBTdWJhdXRob3JpdHkwggEiMA0GCSqGSIb3DQEBAQUAA4IB
DwAwggEKAoIBAQClpcUzgR3Dn/wQJtvggc0t/g+wdBZRKjnBOxDKJ+/G6ueVowW9
JNzLKkYuh8vcsdzUUv2GouzyAyuXqqU4NUUCXRfxDuhFV9mZntZ0Ms70h4f31iIS
zadAVgCl19KOvpFpwmyJAve171ZmSTL8+KDx8tBWG8y8XDNL/cmeD1W9T+9GVyZy
YZSup4VbkVPSHLq4GUTutco03ZVri95hdT1uyXnwOAAIVmu0sE40wkXKaiUzZQof
lStbcab+r/+UpRRtyhrTay1E4XRFJFDhzQC7Dw3+ICf4FMYr6jq5UFyk3sOQ7nu2
04LUBk+v2LDXp9RkRXUfuhJ3GKrebCn+4Oq7AgMBAAGjgZcwgZQwDwYDVR0TAQH/
BAUwAwEB/zAOBgNVHQ8BAf8EBAMCAQYwHQYDVR0OBBYEFEgHM9WADBit/XoEM4SP
qLLZiBiaMDEGCWCGSAGG+EIBDQQkFiJQdXBwZXQgU2VydmVyIEludGVybmFsIENl
cnRpZmljYXRlMB8GA1UdIwQYMBaAFFjTbjU2lwSRarbfRYCaU7PkNsg9MA0GCSqG
SIb3DQEBCwUAA4IBAQCzkbR/C7nDemDP6ZRV8RJ9+/UfSwo5LXCaja36mLbbaoCl
GyNvfoXBYhFEjYq7djVYGaLl4kPnF3W4t3T9orRw2Ha28OC+g2WFzumSWiOq9fXv
a9nD7JR9yt4YdZEjkBTEpw/m4KexLK+bcX+e9pF42yV3FkKSzNiosF7SmGlWDrhq
78m45TcsEkeoUzE+DhpIhZ5GOeNgQF7bKCH6iq+D18ZithY2Lj1YDpYhiNEa59Z0
TO7AAuBRwcYfvciDOOuG4UWk9qCevWLldcLknDq3yygDXHz/KD+AIkuubIycn3GL
DJNChVAgfcqjhE/ioM5Iaf2P7zwMVajwXJ/oN0hl
-----END CERTIFICATE-----
