Certificate:
    Data:
        Version: 3 (0x2)
        Serial Number: 1 (0x1)
    Signature Algorithm: sha256WithRSAEncryption
        Issuer: CN=Test CA
        Validity
            Not Before: Jan  1 00:00:00 1970 GMT
            Not After : Apr 19 22:31:22 2029 GMT
        Subject: CN=Test CA Subauthority
        Subject Public Key Info:
            Public Key Algorithm: rsaEncryption
                Public-Key: (1024 bit)
                Modulus:
                    00:c2:4a:6e:07:c6:1c:8b:2f:bf:91:3e:25:dc:54:
                    2c:02:0f:1b:6f:5b:0e:5a:69:1d:dd:52:3f:8b:f4:
                    c8:56:c6:f3:c5:56:2c:b8:82:67:81:09:7b:0d:6f:
                    01:26:4a:ae:42:53:95:b1:32:ba:07:d4:64:bc:79:
                    1f:16:0a:92:07:e5:af:5d:d6:b3:4d:09:58:b1:8a:
                    ba:2c:c0:d3:9b:95:cc:a1:0d:e5:4d:40:1a:50:2d:
                    a4:45:ff:05:63:62:84:35:73:2c:0f:b3:f6:69:fd:
                    9b:d3:5e:a8:12:f0:c4:a0:77:25:59:e7:81:3d:ee:
                    c5:22:10:75:ac:ad:cc:a4:1f
                Exponent: 65537 (0x10001)
        X509v3 extensions:
            X509v3 Basic Constraints: critical
                CA:TRUE
            X509v3 Key Usage: critical
                Certificate Sign, CRL Sign
            X509v3 Subject Key Identifier: 
                23:78:2F:09:81:B0:7B:C6:79:1F:30:FE:FC:5E:37:14:FF:20:A0:20
            Netscape Comment: 
                Puppet Server Internal Certificate
            X509v3 Authority Key Identifier: 
                keyid:2C:25:19:A1:6C:B3:F7:69:FD:76:9B:3A:22:CB:0C:56:01:01:F1:31

    Signature Algorithm: sha256WithRSAEncryption
         82:ba:d5:8d:f2:d3:98:79:1a:02:15:a2:3d:b3:53:e7:79:28:
         05:39:aa:be:2d:7c:6a:4f:c2:66:60:86:62:41:ba:eb:d5:de:
         6e:3a:81:4a:22:33:5b:22:31:35:61:9e:d9:9c:f8:59:fa:93:
         e7:7e:9c:f9:e7:15:60:34:f2:2a:3a:13:96:94:c8:de:24:b6:
         bf:0d:20:aa:4a:9b:eb:c1:9c:49:be:2f:69:69:01:53:0a:06:
         2a:1d:e7:02:6b:a8:d8:e7:95:32:7e:b5:79:e6:40:0e:72:02:
         74:24:75:eb:3d:17:8d:75:87:2b:2a:dd:5e:98:d8:67:e3:5c:
         2a:9d
-----BEGIN CERTIFICATE-----
MIICPzCCAaigAwIBAgIBATANBgkqhkiG9w0BAQsFADASMRAwDgYDVQQDDAdUZXN0
IENBMB4XDTcwMDEwMTAwMDAwMFoXDTI5MDQxOTIyMzEyMlowHzEdMBsGA1UEAwwU
VGVzdCBDQSBTdWJhdXRob3JpdHkwgZ8wDQYJKoZIhvcNAQEBBQADgY0AMIGJAoGB
AMJKbgfGHIsvv5E+JdxULAIPG29bDlppHd1SP4v0yFbG88VWLLiCZ4EJew1vASZK
rkJTlbEyugfUZLx5HxYKkgflr13Ws00JWLGKuizA05uVzKEN5U1AGlAtpEX/BWNi
hDVzLA+z9mn9m9NeqBLwxKB3JVnngT3uxSIQdaytzKQfAgMBAAGjgZcwgZQwDwYD
VR0TAQH/BAUwAwEB/zAOBgNVHQ8BAf8EBAMCAQYwHQYDVR0OBBYEFCN4LwmBsHvG
eR8w/vxeNxT/IKAgMDEGCWCGSAGG+EIBDQQkFiJQdXBwZXQgU2VydmVyIEludGVy
bmFsIENlcnRpZmljYXRlMB8GA1UdIwQYMBaAFCwlGaFss/dp/XabOiLLDFYBAfEx
MA0GCSqGSIb3DQEBCwUAA4GBAIK61Y3y05h5GgIVoj2zU+d5KAU5qr4tfGpPwmZg
hmJBuuvV3m46gUoiM1siMTVhntmc+Fn6k+d+nPnnFWA08io6E5aUyN4ktr8NIKpK
m+vBnEm+L2lpAVMKBiod5wJrqNjnlTJ+tXnmQA5yAnQkdes9F411hysq3V6Y2Gfj
XCqd
-----END CERTIFICATE-----
