Certificate:
    Data:
        Version: 3 (0x2)
        Serial Number: 3 (0x3)
        Signature Algorithm: sha256WithRSAEncryption
        Issuer: CN=Test CA
        Validity
            Not Before: Jan  1 00:00:00 1970 GMT
            Not After : Jun 24 21:18:00 2033 GMT
        Subject: CN=Test CA Subauthority
        Subject Public Key Info:
            Public Key Algorithm: rsaEncryption
                Public-Key: (2048 bit)
                Modulus:
                    00:c0:91:fc:98:ec:30:6b:f0:5c:d6:0b:ed:79:ab:
                    69:80:c1:ca:5b:d5:4a:a3:e3:1b:3e:25:f1:47:0b:
                    7b:9f:dc:1b:0a:8b:d6:0a:c1:e8:8b:ca:38:68:be:
                    91:58:d7:ff:41:a1:00:48:59:a0:62:2e:1d:e7:2d:
                    7a:c5:64:4d:be:48:30:eb:4f:e3:9e:3f:06:a4:ef:
                    e4:95:5c:86:ff:54:24:49:75:16:84:41:78:c5:8d:
                    ac:ff:af:95:91:ae:e1:f3:92:f0:a1:dd:18:e9:7c:
                    8e:d0:86:e9:84:84:f3:cb:4c:9c:12:f6:a7:54:f0:
                    9c:87:3b:f1:50:67:cf:12:04:11:c0:1b:e0:46:e4:
                    03:73:9c:3c:ea:ed:3e:31:2f:bc:cf:bd:38:fb:1d:
                    fa:f5:8d:66:e7:f2:0b:5f:df:0f:99:ec:45:c9:aa:
                    e4:10:ad:5b:64:a5:da:af:27:e1:47:ac:4f:aa:aa:
                    74:a5:0e:9c:14:c4:89:ef:ce:fb:50:38:b9:f9:09:
                    d6:f9:ba:5b:49:1c:8c:70:9c:0d:4e:3c:94:6d:9e:
                    63:24:c3:e8:49:74:7a:79:02:0d:b4:6f:f3:b9:e0:
                    c0:4c:74:24:21:56:b5:57:e6:c9:29:08:1b:63:6d:
                    2d:9c:e2:68:33:c1:cf:60:07:54:88:d4:da:6c:15:
                    48:1b
                Exponent: 65537 (0x10001)
        X509v3 extensions:
            X509v3 Basic Constraints: critical
                CA:TRUE
            X509v3 Key Usage: critical
                Certificate Sign, CRL Sign
            X509v3 Subject Key Identifier: 
                38:7E:66:C4:7A:8B:16:EC:8A:0C:76:FC:C4:A6:7F:79:E5:DD:9A:FB
            Netscape Comment: 
                Puppet Server Internal Certificate
            X509v3 Authority Key Identifier: 
                83:68:26:16:4A:C3:88:0A:A6:48:43:98:E7:2D:4F:5F:70:8C:62:B2
    Signature Algorithm: sha256WithRSAEncryption
    Signature Value:
        df:f7:e8:04:78:9d:61:be:69:3d:07:19:7f:d0:dd:53:b9:8a:
        84:64:af:d2:17:07:77:83:9b:a4:cf:de:c1:a0:b6:88:1d:d7:
        94:01:b7:7b:15:36:56:03:5d:70:97:cf:50:87:60:83:40:73:
        a6:16:47:71:cd:74:32:3c:1f:36:be:cd:11:a7:2c:34:a4:3f:
        1e:d8:e2:79:9f:7a:2e:20:41:ef:cf:7f:45:6a:3b:5c:fa:ff:
        cb:f6:c2:0e:7d:ad:55:51:b8:23:bf:c1:77:74:7a:58:e3:a6:
        db:2f:3b:09:16:26:98:0f:02:04:dd:aa:cd:b1:bc:16:ab:02:
        50:97:68:4c:93:4c:1a:11:9e:b1:7e:88:b3:ce:cf:31:10:a7:
        ba:3a:13:c0:5f:cf:74:4e:9f:a6:fc:90:26:3a:b1:cb:cb:45:
        28:63:e6:2d:e1:cb:e3:93:1b:07:76:f2:6b:f6:00:87:94:1d:
        91:5c:2e:84:e4:03:9c:32:23:fc:14:30:57:e5:e5:9c:b5:e8:
        c3:0b:d2:82:a2:9b:1b:e7:66:68:78:92:3f:cd:0a:0c:ae:90:
        66:50:d8:67:64:9a:48:3d:8f:a2:03:b1:7f:31:f2:b6:e5:46:
        ac:16:53:c5:9f:2f:bd:44:85:e0:93:b7:3b:dc:b4:c6:b6:af:
        a2:c3:ea:95
-----BEGIN CERTIFICATE-----
MIIDRDCCAiygAwIBAgIBAzANBgkqhkiG9w0BAQsFADASMRAwDgYDVQQDDAdUZXN0
IENBMB4XDTcwMDEwMTAwMDAwMFoXDTMzMDYyNDIxMTgwMFowHzEdMBsGA1UEAwwU
VGVzdCBDQSBTdWJhdXRob3JpdHkwggEiMA0GCSqGSIb3DQEBAQUAA4IBDwAwggEK
AoIBAQDAkfyY7DBr8FzWC+15q2mAwcpb1Uqj4xs+JfFHC3uf3BsKi9YKweiLyjho
vpFY1/9BoQBIWaBiLh3nLXrFZE2+SDDrT+OePwak7+SVXIb/VCRJdRaEQXjFjaz/
r5WRruHzkvCh3RjpfI7QhumEhPPLTJwS9qdU8JyHO/FQZ88SBBHAG+BG5ANznDzq
7T4xL7zPvTj7Hfr1jWbn8gtf3w+Z7EXJquQQrVtkpdqvJ+FHrE+qqnSlDpwUxInv
zvtQOLn5Cdb5ultJHIxwnA1OPJRtnmMkw+hJdHp5Ag20b/O54MBMdCQhVrVX5skp
CBtjbS2c4mgzwc9gB1SI1NpsFUgbAgMBAAGjgZcwgZQwDwYDVR0TAQH/BAUwAwEB
/zAOBgNVHQ8BAf8EBAMCAQYwHQYDVR0OBBYEFDh+ZsR6ixbsigx2/MSmf3nl3Zr7
MDEGCWCGSAGG+EIBDQQkFiJQdXBwZXQgU2VydmVyIEludGVybmFsIENlcnRpZmlj
YXRlMB8GA1UdIwQYMBaAFINoJhZKw4gKpkhDmOctT19wjGKyMA0GCSqGSIb3DQEB
CwUAA4IBAQDf9+gEeJ1hvmk9Bxl/0N1TuYqEZK/SFwd3g5ukz97BoLaIHdeUAbd7
FTZWA11wl89Qh2CDQHOmFkdxzXQyPB82vs0Rpyw0pD8e2OJ5n3ouIEHvz39Fajtc
+v/L9sIOfa1VUbgjv8F3dHpY46bbLzsJFiaYDwIE3arNsbwWqwJQl2hMk0waEZ6x
foizzs8xEKe6OhPAX890Tp+m/JAmOrHLy0UoY+Yt4cvjkxsHdvJr9gCHlB2RXC6E
5AOcMiP8FDBX5eWctejDC9KCopsb52ZoeJI/zQoMrpBmUNhnZJpIPY+iA7F/MfK2
5UasFlPFny+9RIXgk7c73LTGtq+iw+qV
-----END CERTIFICATE-----
