Certificate Revocation List (CRL):
        Version 2 (0x1)
        Signature Algorithm: sha256WithRSAEncryption
        Issuer: CN=Test CA Agent Subauthority
        Last Update: Jan  1 00:00:00 1970 GMT
        Next Update: Apr 18 18:46:23 2031 GMT
        CRL extensions:
            X509v3 Authority Key Identifier: 
                keyid:30:5C:E0:85:AC:BF:77:41:18:C8:05:24:E3:0A:3E:71:66:1A:95:82

            X509v3 CRL Number: 
                0
No Revoked Certificates.
    Signature Algorithm: sha256WithRSAEncryption
         14:7d:d2:53:6f:ce:63:c4:c7:ea:0a:50:9a:31:68:5d:04:9e:
         d6:57:07:67:54:0c:c7:8a:a3:64:1f:81:eb:71:3f:6e:7d:6b:
         db:15:38:0d:57:a7:ac:1e:73:93:f5:e2:ff:0e:d1:ed:a2:9f:
         1c:40:7d:6e:2e:29:7f:aa:e1:8e:46:d1:03:be:6a:3f:c8:b1:
         dd:3d:a3:0d:f5:6b:b3:ef:23:5d:f6:1c:2a:a7:b7:31:b2:0e:
         90:79:03:7f:03:24:9e:ad:9e:bf:18:63:b4:87:81:cf:8b:7f:
         88:e1:6c:fd:c4:3d:46:c3:85:30:74:ca:89:f6:37:e3:dc:c5:
         4c:50:ee:62:2d:71:e8:dd:ac:46:f8:3f:23:6c:80:3c:e7:be:
         00:93:a6:6f:e6:0d:86:4e:15:d8:46:cf:0d:cd:61:b2:74:ac:
         57:9f:79:db:ab:46:de:a7:30:b3:13:a0:44:04:7d:d6:02:a6:
         94:1a:1e:7e:20:43:2a:69:27:4b:7e:7a:00:8d:ab:39:74:19:
         f3:b6:b1:89:c8:2d:38:26:92:c4:fd:5c:9a:68:f5:9a:b0:65:
         7f:e7:a9:04:96:f7:e1:f8:90:79:e4:26:1b:db:cc:93:10:97:
         ad:23:a4:74:56:31:0a:90:5e:d2:cb:cf:ff:cd:9b:fe:8f:35:
         96:d0:3a:9a
-----BEGIN X509 CRL-----
MIIBnzCBiAIBATANBgkqhkiG9w0BAQsFADAlMSMwIQYDVQQDDBpUZXN0IENBIEFn
ZW50IFN1YmF1dGhvcml0eRcNNzAwMTAxMDAwMDAwWhcNMzEwNDE4MTg0NjIzWqAv
MC0wHwYDVR0jBBgwFoAUMFzghay/d0EYyAUk4wo+cWYalYIwCgYDVR0UBAMCAQAw
DQYJKoZIhvcNAQELBQADggEBABR90lNvzmPEx+oKUJoxaF0EntZXB2dUDMeKo2Qf
getxP259a9sVOA1Xp6wec5P14v8O0e2inxxAfW4uKX+q4Y5G0QO+aj/Isd09ow31
a7PvI132HCqntzGyDpB5A38DJJ6tnr8YY7SHgc+Lf4jhbP3EPUbDhTB0yon2N+Pc
xUxQ7mItcejdrEb4PyNsgDznvgCTpm/mDYZOFdhGzw3NYbJ0rFefedurRt6nMLMT
oEQEfdYCppQaHn4gQyppJ0t+egCNqzl0GfO2sYnILTgmksT9XJpo9ZqwZX/nqQSW
9+H4kHnkJhvbzJMQl60jpHRWMQqQXtLLz//Nm/6PNZbQOpo=
-----END X509 CRL-----
