Certificate:
    Data:
        Version: 3 (0x2)
        Serial Number: 1 (0x1)
    Signature Algorithm: sha256WithRSAEncryption
        Issuer: CN=Test CA
        Validity
            Not Before: Jan  1 00:00:00 1970 GMT
            Not After : Mar  9 21:35:53 2029 GMT
        Subject: CN=Test CA Subauthority
        Subject Public Key Info:
            Public Key Algorithm: rsaEncryption
                Public-Key: (1024 bit)
                Modulus:
                    00:e3:9e:d9:d2:f3:61:04:11:b7:41:5e:1f:4e:be:
                    2f:27:e2:79:95:8a:15:e5:1e:31:3e:15:d9:73:7b:
                    b5:af:3f:53:25:fd:2d:ed:d4:ef:15:b6:de:8c:34:
                    28:3e:e8:14:86:9b:06:a8:8f:c5:c2:cf:ce:31:c1:
                    40:4d:24:7b:4c:17:4b:9d:19:6c:57:66:a2:25:ba:
                    26:d2:14:37:32:17:15:0c:51:2e:9d:7e:01:6a:f7:
                    a1:3c:c9:b7:bb:00:79:82:f0:a9:c3:6f:58:a7:68:
                    75:53:b2:fa:33:98:28:53:2e:99:d2:fb:73:63:09:
                    51:32:df:0f:58:ee:ba:6a:19
                Exponent: 65537 (0x10001)
        X509v3 extensions:
            X509v3 Basic Constraints: critical
                CA:TRUE
            X509v3 Key Usage: critical
                Certificate Sign, CRL Sign
            X509v3 Subject Key Identifier: 
                7A:E0:53:6E:4C:00:F4:DE:3D:74:3A:37:BA:CD:25:7A:C2:BC:44:0A
            Netscape Comment: 
                Puppet Server Internal Certificate
            X509v3 Authority Key Identifier: 
                keyid:93:70:43:DA:C0:AA:14:71:0F:93:EB:82:E7:F5:AE:C9:D2:1A:78:77

    Signature Algorithm: sha256WithRSAEncryption
         c3:d4:14:36:2b:f3:0b:aa:1a:eb:25:d6:fc:8c:f4:26:bc:c1:
         a4:eb:a0:ea:91:bc:2d:3d:96:dc:4d:e0:45:af:a6:80:88:dd:
         79:71:ee:3f:72:20:0a:e1:31:8d:9f:20:fc:64:9c:9c:5e:46:
         6b:b4:7e:84:20:cf:18:25:14:6d:d0:b7:e2:74:c5:92:2b:86:
         0a:d0:4a:64:2c:94:50:2d:a2:3b:1d:93:c8:dc:dc:c4:73:d6:
         8a:92:01:05:c9:1e:29:07:c7:da:b6:3b:2b:ca:ca:18:95:13:
         18:1f:d9:5d:11:01:77:47:23:da:b7:b3:82:3f:42:2e:52:3d:
         05:65
-----BEGIN CERTIFICATE-----
MIICPzCCAaigAwIBAgIBATANBgkqhkiG9w0BAQsFADASMRAwDgYDVQQDDAdUZXN0
IENBMB4XDTcwMDEwMTAwMDAwMFoXDTI5MDMwOTIxMzU1M1owHzEdMBsGA1UEAwwU
VGVzdCBDQSBTdWJhdXRob3JpdHkwgZ8wDQYJKoZIhvcNAQEBBQADgY0AMIGJAoGB
AOOe2dLzYQQRt0FeH06+LyfieZWKFeUeMT4V2XN7ta8/UyX9Le3U7xW23ow0KD7o
FIabBqiPxcLPzjHBQE0ke0wXS50ZbFdmoiW6JtIUNzIXFQxRLp1+AWr3oTzJt7sA
eYLwqcNvWKdodVOy+jOYKFMumdL7c2MJUTLfD1juumoZAgMBAAGjgZcwgZQwDwYD
VR0TAQH/BAUwAwEB/zAOBgNVHQ8BAf8EBAMCAQYwHQYDVR0OBBYEFHrgU25MAPTe
PXQ6N7rNJXrCvEQKMDEGCWCGSAGG+EIBDQQkFiJQdXBwZXQgU2VydmVyIEludGVy
bmFsIENlcnRpZmljYXRlMB8GA1UdIwQYMBaAFJNwQ9rAqhRxD5Prguf1rsnSGnh3
MA0GCSqGSIb3DQEBCwUAA4GBAMPUFDYr8wuqGusl1vyM9Ca8waTroOqRvC09ltxN
4EWvpoCI3Xlx7j9yIArhMY2fIPxknJxeRmu0foQgzxglFG3Qt+J0xZIrhgrQSmQs
lFAtojsdk8jc3MRz1oqSAQXJHikHx9q2OyvKyhiVExgf2V0RAXdHI9q3s4I/Qi5S
PQVl
-----END CERTIFICATE-----
