Certificate Revocation List (CRL):
        Version 2 (0x1)
    Signature Algorithm: sha256WithRSAEncryption
        Issuer: /CN=Test CA Subauthority
        Last Update: Jan  1 00:00:00 1970 GMT
        Next Update: Mar  3 20:26:24 2029 GMT
        CRL extensions:
            X509v3 Authority Key Identifier: 
                keyid:CB:B7:D8:15:1D:C0:7B:3F:1E:C8:2E:1E:32:C4:72:62:98:5E:87:49

            X509v3 CRL Number: 
                0
Revoked Certificates:
    Serial Number: 04
        Revocation Date: Mar  6 20:26:24 2019 GMT
        CRL entry extensions:
            X509v3 CRL Reason Code: 
                Key Compromise
    Signature Algorithm: sha256WithRSAEncryption
         93:96:a4:44:f1:4d:3c:ee:e9:76:0b:de:e9:54:59:a6:64:46:
         63:c2:78:7a:2f:f2:2b:a7:64:2d:53:e5:ab:25:cd:11:a5:75:
         45:78:1b:74:5c:60:d0:86:22:4a:c7:00:d2:a5:68:97:f1:3e:
         d9:39:18:11:13:7c:f1:a4:c3:06:74:45:0d:35:d7:d2:8d:4f:
         07:1b:93:7c:69:f4:b4:8b:f3:c1:5c:de:96:d0:e3:d0:ca:c9:
         85:31:03:d9:69:0b:fc:df:84:8a:67:6d:79:34:31:fa:94:91:
         0f:ec:67:62:92:3d:7b:6b:5c:e5:07:3d:08:75:ff:d3:3b:55:
         f2:cc
-----BEGIN X509 CRL-----
MIIBPDCBpgIBATANBgkqhkiG9w0BAQsFADAfMR0wGwYDVQQDDBRUZXN0IENBIFN1
YmF1dGhvcml0eRcNNzAwMTAxMDAwMDAwWhcNMjkwMzAzMjAyNjI0WjAiMCACAQQX
DTE5MDMwNjIwMjYyNFowDDAKBgNVHRUEAwoBAaAvMC0wHwYDVR0jBBgwFoAUy7fY
FR3Aez8eyC4eMsRyYpheh0kwCgYDVR0UBAMCAQAwDQYJKoZIhvcNAQELBQADgYEA
k5akRPFNPO7pdgve6VRZpmRGY8J4ei/yK6dkLVPlqyXNEaV1RXgbdFxg0IYiSscA
0qVol/E+2TkYERN88aTDBnRFDTXX0o1PBxuTfGn0tIvzwVzeltDj0MrJhTED2WkL
/N+EimdteTQx+pSRD+xnYpI9e2tc5Qc9CHX/0ztV8sw=
-----END X509 CRL-----
