Certificate Revocation List (CRL):
        Version 2 (0x1)
        Signature Algorithm: sha256WithRSAEncryption
        Issuer: CN=Test CA Agent Subauthority
        Last Update: Jan  1 00:00:00 1970 GMT
        Next Update: Jan 27 18:43:32 2034 GMT
        CRL extensions:
            X509v3 Authority Key Identifier: 
                keyid:48:07:33:D5:80:0C:18:AD:FD:7A:04:33:84:8F:A8:B2:D9:88:18:9A

            X509v3 CRL Number: 
                0
No Revoked Certificates.
    Signature Algorithm: sha256WithRSAEncryption
         72:c6:aa:64:c7:1e:70:3a:93:ee:69:61:55:51:fb:95:3e:b1:
         c7:e9:ac:60:4d:36:fb:94:26:53:c8:56:42:27:03:b9:f8:e2:
         0c:fd:b7:75:21:58:27:08:69:93:19:34:71:ba:45:15:f5:34:
         70:06:be:31:3a:63:83:1f:c2:ba:9f:08:0e:7f:10:97:41:32:
         17:ac:71:69:ea:2b:44:b2:dd:27:c0:5f:da:7a:5a:26:ec:f6:
         ba:b1:da:0b:c9:4d:f8:22:f4:78:7e:fe:4f:ae:86:55:11:74:
         28:ba:c3:2f:c1:6c:09:a3:8a:60:ba:b3:8c:0e:de:cb:d4:3c:
         a1:66:3e:a4:cd:f3:5d:4e:59:81:c1:b3:d4:6a:6c:ec:43:a1:
         35:91:85:3c:ba:79:e4:4a:cc:a4:bd:ae:a8:cb:8f:0c:d4:b8:
         26:5b:8d:2a:14:26:34:2b:84:d1:7e:6a:ae:ec:cf:14:cd:ca:
         ad:1c:7e:f4:80:e3:32:c2:e8:b7:87:fa:5f:22:cf:08:bc:f4:
         f5:a5:98:1f:d7:43:d9:29:eb:f3:65:c4:f4:d9:8e:90:3a:87:
         27:ee:e7:7b:93:38:6b:5a:49:2e:4a:fa:e8:24:20:08:55:56:
         4e:80:40:27:2f:d2:bf:52:31:19:d7:f1:b5:14:73:4c:cc:a0:
         62:aa:50:0a
-----BEGIN X509 CRL-----
MIIBnzCBiAIBATANBgkqhkiG9w0BAQsFADAlMSMwIQYDVQQDDBpUZXN0IENBIEFn
ZW50IFN1YmF1dGhvcml0eRcNNzAwMTAxMDAwMDAwWhcNMzQwMTI3MTg0MzMyWqAv
MC0wHwYDVR0jBBgwFoAUSAcz1YAMGK39egQzhI+ostmIGJowCgYDVR0UBAMCAQAw
DQYJKoZIhvcNAQELBQADggEBAHLGqmTHHnA6k+5pYVVR+5U+scfprGBNNvuUJlPI
VkInA7n44gz9t3UhWCcIaZMZNHG6RRX1NHAGvjE6Y4MfwrqfCA5/EJdBMhescWnq
K0Sy3SfAX9p6Wibs9rqx2gvJTfgi9Hh+/k+uhlURdCi6wy/BbAmjimC6s4wO3svU
PKFmPqTN811OWYHBs9RqbOxDoTWRhTy6eeRKzKS9rqjLjwzUuCZbjSoUJjQrhNF+
aq7szxTNyq0cfvSA4zLC6LeH+l8izwi89PWlmB/XQ9kp6/NlxPTZjpA6hyfu53uT
OGtaSS5K+ugkIAhVVk6AQCcv0r9SMRnX8bUUc0zMoGKqUAo=
-----END X509 CRL-----
