Certificate Revocation List (CRL):
        Version 2 (0x1)
    Signature Algorithm: sha256WithRSAEncryption
        Issuer: /CN=Test CA Subauthority
        Last Update: Jan  1 00:00:00 1970 GMT
        Next Update: Apr 19 22:31:22 2029 GMT
        CRL extensions:
            X509v3 Authority Key Identifier: 
                keyid:23:78:2F:09:81:B0:7B:C6:79:1F:30:FE:FC:5E:37:14:FF:20:A0:20

            X509v3 CRL Number: 
                0
Revoked Certificates:
    Serial Number: 04
        Revocation Date: Apr 22 22:31:22 2019 GMT
        CRL entry extensions:
            X509v3 CRL Reason Code: 
                Key Compromise
    Signature Algorithm: sha256WithRSAEncryption
         75:08:37:d8:e9:75:be:6b:8f:3e:f4:03:43:03:63:b8:26:02:
         b3:a8:eb:fc:61:f5:0a:ab:8d:4f:59:ba:79:e4:d2:45:be:9a:
         60:ee:ba:85:a3:0e:2e:2b:e0:6f:ac:18:0e:94:c8:76:b6:17:
         c3:fb:55:ab:26:9c:a4:26:8b:9f:74:51:e8:33:8e:83:50:e6:
         6e:38:04:7b:35:db:75:55:88:1b:8d:19:f3:ed:9c:18:1e:3c:
         40:31:73:5e:4d:a7:a2:ef:55:b1:0c:70:ef:85:60:d8:d5:39:
         32:d0:84:8d:b3:96:e6:35:93:8a:da:e6:ec:1f:37:98:9a:5c:
         37:40
-----BEGIN X509 CRL-----
MIIBPDCBpgIBATANBgkqhkiG9w0BAQsFADAfMR0wGwYDVQQDDBRUZXN0IENBIFN1
YmF1dGhvcml0eRcNNzAwMTAxMDAwMDAwWhcNMjkwNDE5MjIzMTIyWjAiMCACAQQX
DTE5MDQyMjIyMzEyMlowDDAKBgNVHRUEAwoBAaAvMC0wHwYDVR0jBBgwFoAUI3gv
CYGwe8Z5HzD+/F43FP8goCAwCgYDVR0UBAMCAQAwDQYJKoZIhvcNAQELBQADgYEA
dQg32Ol1vmuPPvQDQwNjuCYCs6jr/GH1CquNT1m6eeTSRb6aYO66haMOLivgb6wY
DpTIdrYXw/tVqyacpCaLn3RR6DOOg1DmbjgEezXbdVWIG40Z8+2cGB48QDFzXk2n
ou9VsQxw74Vg2NU5MtCEjbOW5jWTitrm7B83mJpcN0A=
-----END X509 CRL-----
