Certificate Revocation List (CRL):
        Version 2 (0x1)
        Signature Algorithm: sha256WithRSAEncryption
        Issuer: CN=Test CA Subauthority
        Last Update: Jan  1 00:00:00 1970 GMT
        Next Update: Jun 24 21:18:00 2033 GMT
        CRL extensions:
            X509v3 Authority Key Identifier: 
                38:7E:66:C4:7A:8B:16:EC:8A:0C:76:FC:C4:A6:7F:79:E5:DD:9A:FB
            X509v3 CRL Number: 
                0
Revoked Certificates:
    Serial Number: 08
        Revocation Date: Jun 27 21:18:00 2023 GMT
        CRL entry extensions:
            X509v3 CRL Reason Code: 
                Key Compromise
    Signature Algorithm: sha256WithRSAEncryption
    Signature Value:
        ab:a0:b0:99:81:11:c8:ed:1e:3d:af:3f:9e:96:c3:b8:e0:13:
        15:0a:e4:23:15:e7:12:16:b9:4b:3e:37:e4:ba:80:c7:c5:b1:
        e8:7d:1a:18:1c:5d:ef:10:00:5a:6a:e9:4e:99:6b:3a:fc:9c:
        fc:55:70:eb:0d:64:60:38:ea:a7:81:9e:9a:46:2a:14:21:f7:
        24:8a:db:49:77:47:9e:4e:ee:95:fc:3e:a1:04:cd:6e:db:80:
        e2:cf:a2:bd:c1:6c:94:e2:43:3d:14:42:bf:a7:f3:b0:d9:9d:
        a6:1d:d4:aa:b0:6c:87:d2:46:5e:b0:d5:26:ba:39:68:c3:34:
        04:1f:c1:63:ac:1d:53:b4:47:ec:e5:e5:24:8f:ef:2d:75:c6:
        a0:94:ef:5c:9c:d8:7e:52:7b:9e:5c:43:2d:7b:dc:94:40:6b:
        99:65:ea:29:15:7c:25:7b:bd:6e:cd:b7:e2:3f:c7:fc:67:d0:
        6e:b7:33:3b:57:64:29:f3:e1:88:b7:72:4e:4e:68:dd:7f:4a:
        2b:3b:ae:30:45:a4:1f:a2:e5:43:af:b5:56:1f:63:da:42:20:
        aa:20:82:0e:c3:68:06:c4:5f:33:bb:4b:a2:9c:a4:ea:44:b6:
        3e:d5:df:c2:08:b4:6b:cf:6e:fb:a8:cf:80:0f:34:f2:d8:75:
        1e:9e:28:1a
-----BEGIN X509 CRL-----
MIIBvTCBpgIBATANBgkqhkiG9w0BAQsFADAfMR0wGwYDVQQDDBRUZXN0IENBIFN1
YmF1dGhvcml0eRcNNzAwMTAxMDAwMDAwWhcNMzMwNjI0MjExODAwWjAiMCACAQgX
DTIzMDYyNzIxMTgwMFowDDAKBgNVHRUEAwoBAaAvMC0wHwYDVR0jBBgwFoAUOH5m
xHqLFuyKDHb8xKZ/eeXdmvswCgYDVR0UBAMCAQAwDQYJKoZIhvcNAQELBQADggEB
AKugsJmBEcjtHj2vP56Ww7jgExUK5CMV5xIWuUs+N+S6gMfFseh9GhgcXe8QAFpq
6U6Zazr8nPxVcOsNZGA46qeBnppGKhQh9ySK20l3R55O7pX8PqEEzW7bgOLPor3B
bJTiQz0UQr+n87DZnaYd1KqwbIfSRl6w1Sa6OWjDNAQfwWOsHVO0R+zl5SSP7y11
xqCU71yc2H5Se55cQy173JRAa5ll6ikVfCV7vW7Nt+I/x/xn0G63MztXZCnz4Yi3
ck5OaN1/Sis7rjBFpB+i5UOvtVYfY9pCIKoggg7DaAbEXzO7S6KcpOpEtj7V38II
tGvPbvuoz4APNPLYdR6eKBo=
-----END X509 CRL-----
