Certificate:
    Data:
        Version: 3 (0x2)
        Serial Number: 7 (0x7)
        Signature Algorithm: sha256WithRSAEncryption
        Issuer: CN=Test CA Subauthority
        Validity
            Not Before: Jan  1 00:00:00 1970 GMT
            Not After : Jun 24 21:18:00 2033 GMT
        Subject: CN=oid
        Subject Public Key Info:
            Public Key Algorithm: rsaEncryption
                Public-Key: (2048 bit)
                Modulus:
                    00:e9:88:51:72:dc:84:5c:91:8c:bb:47:f5:d5:d5:
                    a0:d2:56:53:d7:5d:48:f1:bc:3a:fb:7f:68:37:31:
                    b5:2d:a7:3a:10:5b:fa:57:a4:b6:be:0b:73:ea:37:
                    95:66:6d:20:15:4e:cd:da:b7:d7:fe:55:b9:09:ed:
                    3e:c0:99:ad:85:1e:5c:b0:cd:91:76:2f:bb:a7:d0:
                    10:3e:58:81:29:80:c0:93:c9:e9:33:7c:05:08:f4:
                    b4:5f:fa:5b:e9:4b:4e:ff:61:25:00:00:c6:99:04:
                    45:81:c8:69:55:02:28:ff:07:c2:cc:1b:cb:c1:57:
                    17:31:15:2f:32:1f:0b:ac:76:7a:a5:0f:8e:c0:22:
                    ef:bb:b6:0b:3b:50:7b:b2:62:7b:86:83:19:43:74:
                    33:14:36:a1:95:38:85:80:72:4d:b8:65:b1:2c:29:
                    65:73:0f:9b:8f:f1:97:84:33:7d:ae:82:cd:0d:85:
                    b1:fe:09:8e:35:65:ae:02:83:2a:26:f3:63:68:73:
                    37:dd:b7:a1:3b:8e:18:ce:6a:2e:e4:fa:67:0c:2c:
                    b1:18:ae:bc:62:81:f2:0d:97:dc:c3:f1:eb:58:bf:
                    56:e8:7b:20:2d:91:1d:57:64:19:5b:93:4f:97:65:
                    bd:a4:6c:bd:eb:70:b6:1f:10:18:83:ee:61:d4:d5:
                    ba:59
                Exponent: 65537 (0x10001)
        X509v3 extensions:
            1.3.6.1.4.1.34380.1.2.1.1: 
                ..somevalue
    Signature Algorithm: sha256WithRSAEncryption
    Signature Value:
        58:a5:3a:35:f2:ca:bc:9e:6f:a3:84:e4:2e:3a:1e:00:3d:34:
        b2:23:f6:88:0b:e0:50:18:83:0f:16:6f:13:02:54:e7:30:16:
        43:a0:aa:cf:f0:56:67:ac:c2:a5:38:e3:3b:f1:6a:59:e2:c2:
        d6:56:49:52:9e:18:35:a2:58:5c:0a:ac:5f:dc:0d:65:60:23:
        8d:a4:83:9e:05:c3:c5:a8:9e:6d:d0:97:26:f0:60:ca:b3:a4:
        19:cc:ab:d1:82:3f:b5:00:85:96:aa:bf:2f:b7:12:83:8c:f0:
        5e:95:f7:10:4d:5a:22:e7:f7:94:cc:48:44:47:5d:6f:68:23:
        3a:f3:37:24:52:90:c9:70:e9:c2:15:2f:d1:fb:ad:88:ea:b9:
        3e:58:57:1e:3d:96:af:32:5d:f8:1a:ec:f8:e2:1a:82:16:2f:
        91:89:7e:7b:27:30:5e:df:4c:f9:b9:bd:87:0f:c2:6f:67:55:
        06:a9:d1:9a:fa:3f:bf:4f:c8:66:d5:8d:c2:2f:2f:fb:72:1d:
        b6:94:db:7c:94:1a:4d:09:0b:0b:7b:d0:db:f1:5b:0a:f0:1a:
        71:a7:31:91:a0:43:0a:53:77:bf:ff:bd:9f:f7:3f:32:ba:4b:
        d9:f3:af:9c:cb:00:aa:05:78:02:9d:6f:56:f9:f7:12:64:06:
        f4:80:86:9f
-----BEGIN CERTIFICATE-----
MIICxzCCAa+gAwIBAgIBBzANBgkqhkiG9w0BAQsFADAfMR0wGwYDVQQDDBRUZXN0
IENBIFN1YmF1dGhvcml0eTAeFw03MDAxMDEwMDAwMDBaFw0zMzA2MjQyMTE4MDBa
MA4xDDAKBgNVBAMMA29pZDCCASIwDQYJKoZIhvcNAQEBBQADggEPADCCAQoCggEB
AOmIUXLchFyRjLtH9dXVoNJWU9ddSPG8Ovt/aDcxtS2nOhBb+lektr4Lc+o3lWZt
IBVOzdq31/5VuQntPsCZrYUeXLDNkXYvu6fQED5YgSmAwJPJ6TN8BQj0tF/6W+lL
Tv9hJQAAxpkERYHIaVUCKP8Hwswby8FXFzEVLzIfC6x2eqUPjsAi77u2CztQe7Ji
e4aDGUN0MxQ2oZU4hYByTbhlsSwpZXMPm4/xl4Qzfa6CzQ2Fsf4JjjVlrgKDKibz
Y2hzN923oTuOGM5qLuT6ZwwssRiuvGKB8g2X3MPx61i/Vuh7IC2RHVdkGVuTT5dl
vaRsvetwth8QGIPuYdTVulkCAwEAAaMfMB0wGwYMKwYBBAGCjEwBAgEBBAsMCXNv
bWV2YWx1ZTANBgkqhkiG9w0BAQsFAAOCAQEAWKU6NfLKvJ5vo4TkLjoeAD00siP2
iAvgUBiDDxZvEwJU5zAWQ6Cqz/BWZ6zCpTjjO/FqWeLC1lZJUp4YNaJYXAqsX9wN
ZWAjjaSDngXDxaiebdCXJvBgyrOkGcyr0YI/tQCFlqq/L7cSg4zwXpX3EE1aIuf3
lMxIREddb2gjOvM3JFKQyXDpwhUv0futiOq5PlhXHj2WrzJd+Brs+OIaghYvkYl+
eycwXt9M+bm9hw/Cb2dVBqnRmvo/v0/IZtWNwi8v+3IdtpTbfJQaTQkLC3vQ2/Fb
CvAacacxkaBDClN3v/+9n/c/MrpL2fOvnMsAqgV4Ap1vVvn3EmQG9ICGnw==
-----END CERTIFICATE-----
