Certificate:
    Data:
        Version: 3 (0x2)
        Serial Number: 7 (0x7)
        Signature Algorithm: sha256WithRSAEncryption
        Issuer: CN=Test CA Subauthority
        Validity
            Not Before: Jan  1 00:00:00 1970 GMT
            Not After : Jan 27 18:43:32 2034 GMT
        Subject: CN=oid
        Subject Public Key Info:
            Public Key Algorithm: rsaEncryption
                RSA Public-Key: (2048 bit)
                Modulus:
                    00:d3:1e:8b:39:52:df:37:6e:2f:44:44:b9:55:2e:
                    1d:44:1f:dd:41:b3:ce:a4:fd:f3:5a:41:f6:9a:37:
                    05:a7:2c:34:ec:46:2f:89:9e:ff:9e:20:75:05:35:
                    68:68:45:d2:f5:15:0d:f7:9c:78:a7:69:a9:f6:3d:
                    4b:5d:ab:0d:a7:a7:75:a2:c8:d7:09:be:53:3c:8b:
                    75:95:0e:e3:f3:80:dc:26:6d:98:c5:48:fa:1b:68:
                    51:ec:47:44:72:5a:83:32:a9:65:8d:40:12:6d:46:
                    59:05:e7:cd:55:c1:67:7f:81:da:3d:43:04:d3:58:
                    09:c2:27:0a:52:84:01:a1:01:dd:ab:34:3b:a7:90:
                    a5:52:8d:d9:86:fc:d9:c1:9b:08:f0:67:c7:7e:a8:
                    61:de:fe:57:af:dc:58:8c:8e:eb:27:2a:b9:a2:34:
                    d4:31:33:87:c7:2e:69:e7:26:75:cd:bd:bb:61:00:
                    3b:d2:73:54:9f:b0:f6:78:5e:46:51:37:35:65:a1:
                    10:0e:97:7b:81:dc:9f:f2:1a:c7:9f:80:4d:e6:72:
                    e8:92:ee:3f:81:61:c5:a1:43:43:0b:1a:03:c4:0e:
                    bc:71:d0:30:8f:95:f7:9e:de:86:5e:4d:18:ab:5e:
                    8e:14:3e:f1:c5:98:78:11:65:4f:3c:7f:c3:d9:5e:
                    89:5b
                Exponent: 65537 (0x10001)
        X509v3 extensions:
            1.3.6.1.4.1.34380.1.2.1.1: 
                ..somevalue
    Signature Algorithm: sha256WithRSAEncryption
         68:29:84:a9:fc:d4:b9:72:ab:96:be:a9:e0:cc:4f:e1:f1:e6:
         0e:46:69:e1:99:da:98:b7:ff:58:2f:45:5d:e7:de:79:39:42:
         b0:ba:ab:6e:1f:9c:a8:a8:eb:3e:7b:78:c1:cc:2f:82:df:50:
         73:01:85:5c:e6:e8:72:11:22:8a:8f:11:6c:23:e0:07:b2:e5:
         a6:a3:99:e0:68:7e:01:3e:fc:4c:3e:cd:13:ec:56:00:74:29:
         9f:23:ba:ba:98:b0:dd:4a:c6:26:6e:e0:58:8c:4b:b7:e0:a5:
         bc:1c:b5:41:8b:c8:33:d4:1b:10:64:d9:2c:ba:57:d9:32:50:
         ea:b7:1b:90:8a:b0:04:e4:2c:c5:f1:a1:2f:fc:22:d7:9f:b1:
         5c:06:fb:b0:ee:34:53:03:a2:25:bc:57:86:1e:29:ef:4c:ca:
         5b:08:3c:9c:6e:19:38:5e:4e:4c:fe:97:69:de:11:5a:28:37:
         5d:1c:e9:b6:21:78:33:16:12:7e:72:f5:e4:22:da:6e:aa:bd:
         4d:ca:e7:f7:13:f4:fc:e3:55:ae:e0:57:c8:ac:a7:2e:5e:dd:
         81:70:68:1b:68:8e:47:a5:bf:84:59:ed:4a:85:8a:07:ce:cc:
         a5:91:b7:59:64:d8:5c:26:19:bb:51:fe:87:d8:e6:36:9d:2c:
         28:2a:df:c9
-----BEGIN CERTIFICATE-----
MIICxzCCAa+gAwIBAgIBBzANBgkqhkiG9w0BAQsFADAfMR0wGwYDVQQDDBRUZXN0
IENBIFN1YmF1dGhvcml0eTAeFw03MDAxMDEwMDAwMDBaFw0zNDAxMjcxODQzMzJa
MA4xDDAKBgNVBAMMA29pZDCCASIwDQYJKoZIhvcNAQEBBQADggEPADCCAQoCggEB
ANMeizlS3zduL0REuVUuHUQf3UGzzqT981pB9po3BacsNOxGL4me/54gdQU1aGhF
0vUVDfeceKdpqfY9S12rDaendaLI1wm+UzyLdZUO4/OA3CZtmMVI+htoUexHRHJa
gzKpZY1AEm1GWQXnzVXBZ3+B2j1DBNNYCcInClKEAaEB3as0O6eQpVKN2Yb82cGb
CPBnx36oYd7+V6/cWIyO6ycquaI01DEzh8cuaecmdc29u2EAO9JzVJ+w9nheRlE3
NWWhEA6Xe4Hcn/Iax5+ATeZy6JLuP4FhxaFDQwsaA8QOvHHQMI+V957ehl5NGKte
jhQ+8cWYeBFlTzx/w9leiVsCAwEAAaMfMB0wGwYMKwYBBAGCjEwBAgEBBAsMCXNv
bWV2YWx1ZTANBgkqhkiG9w0BAQsFAAOCAQEAaCmEqfzUuXKrlr6p4MxP4fHmDkZp
4ZnamLf/WC9FXefeeTlCsLqrbh+cqKjrPnt4wcwvgt9QcwGFXObochEiio8RbCPg
B7LlpqOZ4Gh+AT78TD7NE+xWAHQpnyO6upiw3UrGJm7gWIxLt+ClvBy1QYvIM9Qb
EGTZLLpX2TJQ6rcbkIqwBOQsxfGhL/wi15+xXAb7sO40UwOiJbxXhh4p70zKWwg8
nG4ZOF5OTP6Xad4RWig3XRzptiF4MxYSfnL15CLabqq9Tcrn9xP0/ONVruBXyKyn
Ll7dgXBoG2iOR6W/hFntSoWKB87MpZG3WWTYXCYZu1H+h9jmNp0sKCrfyQ==
-----END CERTIFICATE-----
