Certificate:
    Data:
        Version: 3 (0x2)
        Serial Number: 6 (0x6)
        Signature Algorithm: sha256WithRSAEncryption
        Issuer: CN=Test CA Subauthority
        Validity
            Not Before: Jan  1 00:00:00 1970 GMT
            Not After : Jun 15 01:19:37 2031 GMT
        Subject: CN=oid
        Subject Public Key Info:
            Public Key Algorithm: rsaEncryption
                RSA Public-Key: (2048 bit)
                Modulus:
                    00:bf:24:ca:22:a8:10:63:f7:0f:23:43:b3:19:fd:
                    42:02:d0:07:12:7f:3b:06:ff:04:3a:b4:d3:8c:bf:
                    c2:21:3a:de:ac:f0:13:ef:00:11:e4:84:f1:f2:08:
                    53:84:aa:74:de:98:ef:05:87:f6:4c:62:cf:8a:c2:
                    0e:c9:02:27:23:35:b9:62:15:1b:51:b0:26:00:e7:
                    7d:be:33:92:a9:a0:48:b6:d9:00:c8:7e:ab:97:28:
                    94:2e:c8:e2:01:57:da:3c:6c:86:02:58:87:69:47:
                    8d:61:2f:7f:0d:e7:a6:83:12:34:f1:17:0d:ca:82:
                    e0:82:91:a2:2d:51:28:1d:d9:f2:01:27:05:ad:30:
                    8c:47:2b:ac:c9:ee:14:a6:0a:4f:a6:e0:3a:c2:93:
                    12:92:84:1f:76:5f:5b:3a:75:7a:08:99:16:77:fd:
                    ba:71:e7:d4:0e:37:5c:ca:3f:80:27:c9:64:87:9a:
                    d3:9e:5d:31:9f:20:c4:0f:65:47:f4:ea:5e:28:70:
                    ed:b9:cf:09:67:ae:fb:c7:99:5f:11:16:e7:99:30:
                    94:01:35:9d:4d:94:a4:55:c5:1b:88:30:25:1b:21:
                    9d:20:0c:91:49:93:92:a7:97:bb:90:4e:8f:27:bf:
                    55:fa:78:2b:6b:40:76:16:ed:44:4d:79:71:75:87:
                    b6:4b
                Exponent: 65537 (0x10001)
        X509v3 extensions:
            1.3.6.1.4.1.34380.1.2.1.1: 
                ..somevalue
    Signature Algorithm: sha256WithRSAEncryption
         6f:40:86:4d:b1:68:6e:1a:a5:52:b1:cb:a0:24:90:2f:20:72:
         2b:da:cb:25:af:ab:01:8e:fb:94:95:ef:eb:a6:8c:12:a2:3e:
         dc:9a:fe:c3:70:95:6b:38:04:d5:1b:81:8a:37:5c:c3:eb:85:
         c7:04:28:ba:f3:33:20:b1:dc:7d:d0:05:6a:eb:25:7a:4f:d4:
         ae:c5:8b:1f:41:4f:fe:10:a5:b3:55:15:c9:a0:b9:98:33:f2:
         a3:21:7d:29:34:90:e0:c8:45:d7:ac:27:a7:54:9b:53:9d:5c:
         cb:52:2e:d5:db:cf:a6:84:c7:4d:50:05:41:6c:59:44:77:bf:
         de:5f:36:60:7f:50:9e:ed:00:71:63:9e:35:a4:5f:f1:b5:46:
         8c:c6:3a:e5:ec:05:66:23:d3:a2:05:46:17:0d:24:c1:eb:c5:
         ff:43:ce:1a:86:2b:e7:d5:a6:73:a5:3a:64:1a:e0:20:97:f9:
         45:82:12:cc:eb:da:b4:48:a6:8f:67:3d:15:c6:a7:27:12:c6:
         9a:aa:88:35:6d:21:5d:d5:f9:86:e9:ff:c4:f3:7d:29:ac:2e:
         ec:d9:8e:c6:ab:40:23:77:7d:ed:7a:76:e3:a9:74:c7:9e:24:
         87:00:76:7b:fc:e4:98:1e:90:d8:51:dd:8e:b9:ca:90:b7:79:
         e2:0c:9b:f3
-----BEGIN CERTIFICATE-----
MIICxzCCAa+gAwIBAgIBBjANBgkqhkiG9w0BAQsFADAfMR0wGwYDVQQDDBRUZXN0
IENBIFN1YmF1dGhvcml0eTAeFw03MDAxMDEwMDAwMDBaFw0zMTA2MTUwMTE5Mzda
MA4xDDAKBgNVBAMMA29pZDCCASIwDQYJKoZIhvcNAQEBBQADggEPADCCAQoCggEB
AL8kyiKoEGP3DyNDsxn9QgLQBxJ/Owb/BDq004y/wiE63qzwE+8AEeSE8fIIU4Sq
dN6Y7wWH9kxiz4rCDskCJyM1uWIVG1GwJgDnfb4zkqmgSLbZAMh+q5colC7I4gFX
2jxshgJYh2lHjWEvfw3npoMSNPEXDcqC4IKRoi1RKB3Z8gEnBa0wjEcrrMnuFKYK
T6bgOsKTEpKEH3ZfWzp1egiZFnf9unHn1A43XMo/gCfJZIea055dMZ8gxA9lR/Tq
Xihw7bnPCWeu+8eZXxEW55kwlAE1nU2UpFXFG4gwJRshnSAMkUmTkqeXu5BOjye/
Vfp4K2tAdhbtRE15cXWHtksCAwEAAaMfMB0wGwYMKwYBBAGCjEwBAgEBBAsMCXNv
bWV2YWx1ZTANBgkqhkiG9w0BAQsFAAOCAQEAb0CGTbFobhqlUrHLoCSQLyByK9rL
Ja+rAY77lJXv66aMEqI+3Jr+w3CVazgE1RuBijdcw+uFxwQouvMzILHcfdAFausl
ek/UrsWLH0FP/hCls1UVyaC5mDPyoyF9KTSQ4MhF16wnp1SbU51cy1Iu1dvPpoTH
TVAFQWxZRHe/3l82YH9Qnu0AcWOeNaRf8bVGjMY65ewFZiPTogVGFw0kwevF/0PO
GoYr59Wmc6U6ZBrgIJf5RYISzOvatEimj2c9FcanJxLGmqqINW0hXdX5hun/xPN9
Kawu7NmOxqtAI3d97Xp246l0x54khwB2e/zkmB6Q2FHdjrnKkLd54gyb8w==
-----END CERTIFICATE-----
