Certificate:
    Data:
        Version: 3 (0x2)
        Serial Number: 11 (0xb)
        Signature Algorithm: sha256WithRSAEncryption
        Issuer: CN=Test CA Agent Subauthority
        Validity
            Not Before: Jan  1 00:00:00 1970 GMT
            Not After : Jan 27 18:43:32 2034 GMT
        Subject: CN=pluto
        Subject Public Key Info:
            Public Key Algorithm: rsaEncryption
                RSA Public-Key: (2048 bit)
                Modulus:
                    00:cb:df:c1:d7:96:85:2d:3b:83:ec:a0:78:6d:5e:
                    ed:d5:bc:c9:41:96:37:f4:c1:5d:da:c4:97:38:b9:
                    b8:c7:0f:69:2b:c7:8c:83:74:9a:44:1c:93:0d:2b:
                    7d:c6:09:f1:6d:87:ac:45:3a:88:bf:b1:f5:5a:07:
                    d1:e6:77:a2:d5:e1:4a:06:e3:2e:34:66:0d:ef:c5:
                    0a:2e:c9:a4:81:d5:2b:8a:07:d3:2b:4f:21:4c:16:
                    6d:bb:b7:ed:58:9f:0a:b5:5b:46:61:0d:e6:8e:f8:
                    91:be:6f:7f:c0:52:0c:48:a5:e7:93:5b:e1:be:8b:
                    83:c5:91:49:2d:b6:de:7c:dc:9d:08:b3:77:0c:84:
                    8e:d8:c4:20:c7:2c:f5:88:11:35:7a:1f:bd:f4:c0:
                    bb:37:e4:35:3a:aa:63:bf:b6:8d:20:6a:2c:c3:aa:
                    79:e5:02:76:d1:65:f7:43:0d:d4:34:74:2d:75:8e:
                    b4:d0:a3:51:e7:75:ee:a8:80:21:5f:7e:d8:fd:c8:
                    f6:a7:35:dd:cb:d5:9f:06:f1:3d:e2:60:8f:cb:04:
                    5b:73:a1:2f:a4:a0:b5:80:56:11:73:7d:ac:75:19:
                    50:e7:1f:08:bc:6f:30:37:d0:49:59:9f:a5:8d:9b:
                    59:85:f9:d8:99:fc:68:54:e5:7b:54:c9:b5:b1:88:
                    b3:b1
                Exponent: 65537 (0x10001)
    Signature Algorithm: sha256WithRSAEncryption
         4d:d7:88:a0:d0:db:a1:00:ed:46:b8:dd:1d:a3:3d:3b:d4:c5:
         46:df:01:0e:30:e5:2c:63:95:ca:90:68:50:3f:53:5c:df:e6:
         0a:74:6b:88:20:3b:1e:19:4c:bd:08:70:44:f5:31:b3:23:b5:
         4b:14:62:e2:0a:99:13:75:d0:db:63:01:49:3a:d2:c5:28:a5:
         eb:cf:b5:92:38:5d:c8:3e:fc:8b:d1:b1:24:ca:60:de:9d:23:
         14:10:e8:68:80:3c:a2:d3:89:ce:4b:2d:9a:42:42:00:06:9b:
         92:76:a1:79:9d:e6:e6:1a:9f:10:06:0a:74:6d:8d:5f:2a:f3:
         fb:49:16:7c:08:93:31:53:83:41:cc:62:c2:7c:2d:1a:57:cb:
         2b:c1:6a:5f:7f:1e:a5:1d:2d:ff:3e:80:88:eb:55:53:a5:3f:
         73:fc:5a:e7:ad:d9:00:77:a3:e4:a7:cd:12:c1:88:f6:93:7f:
         46:9d:ca:20:9e:22:8a:1a:23:1e:20:78:cb:46:15:7e:73:40:
         66:f5:16:b5:6d:5f:e2:9c:4c:4e:e1:23:f9:7b:45:7d:ee:7e:
         b6:c9:96:16:52:dc:d8:8a:f6:4d:b0:d2:08:84:fb:4f:1f:af:
         41:87:a3:39:d6:19:37:eb:ad:98:b2:6f:46:28:8b:26:43:f1:
         c8:35:3c:81
-----BEGIN CERTIFICATE-----
MIICrjCCAZagAwIBAgIBCzANBgkqhkiG9w0BAQsFADAlMSMwIQYDVQQDDBpUZXN0
IENBIEFnZW50IFN1YmF1dGhvcml0eTAeFw03MDAxMDEwMDAwMDBaFw0zNDAxMjcx
ODQzMzJaMBAxDjAMBgNVBAMMBXBsdXRvMIIBIjANBgkqhkiG9w0BAQEFAAOCAQ8A
MIIBCgKCAQEAy9/B15aFLTuD7KB4bV7t1bzJQZY39MFd2sSXOLm4xw9pK8eMg3Sa
RByTDSt9xgnxbYesRTqIv7H1WgfR5nei1eFKBuMuNGYN78UKLsmkgdUrigfTK08h
TBZtu7ftWJ8KtVtGYQ3mjviRvm9/wFIMSKXnk1vhvouDxZFJLbbefNydCLN3DISO
2MQgxyz1iBE1eh+99MC7N+Q1Oqpjv7aNIGosw6p55QJ20WX3Qw3UNHQtdY600KNR
53XuqIAhX37Y/cj2pzXdy9WfBvE94mCPywRbc6EvpKC1gFYRc32sdRlQ5x8IvG8w
N9BJWZ+ljZtZhfnYmfxoVOV7VMm1sYizsQIDAQABMA0GCSqGSIb3DQEBCwUAA4IB
AQBN14ig0NuhAO1GuN0doz071MVG3wEOMOUsY5XKkGhQP1Nc3+YKdGuIIDseGUy9
CHBE9TGzI7VLFGLiCpkTddDbYwFJOtLFKKXrz7WSOF3IPvyL0bEkymDenSMUEOho
gDyi04nOSy2aQkIABpuSdqF5nebmGp8QBgp0bY1fKvP7SRZ8CJMxU4NBzGLCfC0a
V8srwWpffx6lHS3/PoCI61VTpT9z/FrnrdkAd6Pkp80SwYj2k39GncogniKKGiMe
IHjLRhV+c0Bm9Ra1bV/inExO4SP5e0V97n62yZYWUtzYivZNsNIIhPtPH69Bh6M5
1hk3662Ysm9GKIsmQ/HINTyB
-----END CERTIFICATE-----
