Certificate:
    Data:
        Version: 3 (0x2)
        Serial Number: 10 (0xa)
        Signature Algorithm: sha256WithRSAEncryption
        Issuer: CN=Test CA Agent Subauthority
        Validity
            Not Before: Jan  1 00:00:00 1970 GMT
            Not After : Jun 15 01:19:37 2031 GMT
        Subject: CN=pluto
        Subject Public Key Info:
            Public Key Algorithm: rsaEncryption
                RSA Public-Key: (2048 bit)
                Modulus:
                    00:a7:b5:af:10:3a:4a:46:00:f7:51:66:8b:1d:35:
                    11:65:e6:1a:50:0a:37:56:ff:93:16:20:cd:35:58:
                    28:c4:6f:06:31:d8:86:77:ed:20:85:55:ad:8a:46:
                    b8:3d:70:51:aa:31:f9:58:ad:a5:d5:4f:ca:d0:3e:
                    10:8f:4f:b9:c6:cc:e8:6e:f2:24:15:26:c3:3a:24:
                    85:d2:e8:f7:63:3a:97:b4:e9:ff:5e:c0:ee:e7:ed:
                    9b:2e:59:87:36:08:8f:e4:df:5a:03:25:a3:35:40:
                    69:a1:e4:a4:f0:c0:28:32:64:ef:ab:2a:f9:cd:ed:
                    d4:0e:bd:46:dd:fc:9d:a3:1f:d6:14:c2:58:1f:0d:
                    9e:85:f4:ce:c9:b1:91:1b:6e:d1:71:4e:ae:8a:c6:
                    65:67:af:27:93:8b:be:80:46:57:9e:a6:8a:5c:0b:
                    18:86:c0:77:b6:57:87:2d:2a:31:fd:34:75:33:58:
                    c3:8b:9c:c1:5b:61:4c:28:94:a9:2a:e1:24:7e:c2:
                    6f:ce:be:fc:98:1b:49:4a:91:b1:2b:73:30:c7:44:
                    ef:d9:f3:af:43:1b:ab:c2:c9:eb:97:a9:9f:6c:6e:
                    b1:12:d3:cb:d0:3e:1d:2d:cc:ee:3e:ea:24:0d:1e:
                    24:f8:3e:bc:8a:4d:85:78:be:c4:e3:97:86:31:6e:
                    d9:07
                Exponent: 65537 (0x10001)
    Signature Algorithm: sha256WithRSAEncryption
         21:81:c6:f9:ce:10:12:5a:52:73:52:90:7f:7d:f0:1c:7a:48:
         91:6e:f7:5d:f2:6b:10:b1:6d:d1:19:62:40:7e:bb:3f:23:0d:
         7f:6c:5a:51:b4:07:80:17:f2:6d:2e:44:a4:f2:07:3c:1e:ce:
         85:4e:bc:3c:69:ce:94:b5:4e:03:66:8e:21:68:15:c8:8d:06:
         79:ab:ff:ac:0d:03:8a:02:06:1f:8c:09:87:64:ee:75:37:eb:
         db:54:79:0f:03:7b:dd:c2:c3:c3:4b:fc:76:72:8c:b5:ae:f3:
         ea:6e:c5:b1:ff:96:0e:05:fc:0f:16:88:bd:2e:e5:04:3b:a4:
         fd:ed:1f:fb:b2:14:ab:30:d8:f9:44:5c:bb:8b:bc:86:c7:d7:
         59:e8:f4:b0:9e:28:24:f4:93:14:97:27:73:a5:8e:8a:3b:09:
         cb:76:fc:02:9e:72:3f:f5:12:ce:84:82:d4:7e:d5:b9:32:ff:
         af:cf:0e:7a:97:29:4e:c3:e7:1c:e5:c1:61:bb:85:5a:47:c1:
         6d:ac:e4:a8:a1:68:d7:bc:aa:e6:16:08:5a:4e:dc:8b:7d:0d:
         53:6f:c1:8b:bd:a0:57:70:b5:1c:a8:27:8a:1a:93:18:3d:72:
         0d:97:49:63:88:f9:af:51:9e:87:2d:8f:98:b2:cb:42:b6:ee:
         44:18:8d:93
-----BEGIN CERTIFICATE-----
MIICrjCCAZagAwIBAgIBCjANBgkqhkiG9w0BAQsFADAlMSMwIQYDVQQDDBpUZXN0
IENBIEFnZW50IFN1YmF1dGhvcml0eTAeFw03MDAxMDEwMDAwMDBaFw0zMTA2MTUw
MTE5MzdaMBAxDjAMBgNVBAMMBXBsdXRvMIIBIjANBgkqhkiG9w0BAQEFAAOCAQ8A
MIIBCgKCAQEAp7WvEDpKRgD3UWaLHTURZeYaUAo3Vv+TFiDNNVgoxG8GMdiGd+0g
hVWtika4PXBRqjH5WK2l1U/K0D4Qj0+5xszobvIkFSbDOiSF0uj3YzqXtOn/XsDu
5+2bLlmHNgiP5N9aAyWjNUBpoeSk8MAoMmTvqyr5ze3UDr1G3fydox/WFMJYHw2e
hfTOybGRG27RcU6uisZlZ68nk4u+gEZXnqaKXAsYhsB3tleHLSox/TR1M1jDi5zB
W2FMKJSpKuEkfsJvzr78mBtJSpGxK3Mwx0Tv2fOvQxurwsnrl6mfbG6xEtPL0D4d
LczuPuokDR4k+D68ik2FeL7E45eGMW7ZBwIDAQABMA0GCSqGSIb3DQEBCwUAA4IB
AQAhgcb5zhASWlJzUpB/ffAcekiRbvdd8msQsW3RGWJAfrs/Iw1/bFpRtAeAF/Jt
LkSk8gc8Hs6FTrw8ac6UtU4DZo4haBXIjQZ5q/+sDQOKAgYfjAmHZO51N+vbVHkP
A3vdwsPDS/x2coy1rvPqbsWx/5YOBfwPFoi9LuUEO6T97R/7shSrMNj5RFy7i7yG
x9dZ6PSwnigk9JMUlydzpY6KOwnLdvwCnnI/9RLOhILUftW5Mv+vzw56lylOw+cc
5cFhu4VaR8FtrOSooWjXvKrmFghaTtyLfQ1Tb8GLvaBXcLUcqCeKGpMYPXINl0lj
iPmvUZ6HLY+YsstCtu5EGI2T
-----END CERTIFICATE-----
