Certificate:
    Data:
        Version: 3 (0x2)
        Serial Number: 7 (0x7)
    Signature Algorithm: sha256WithRSAEncryption
        Issuer: CN=Test CA Agent Subauthority
        Validity
            Not Before: Jan  1 00:00:00 1970 GMT
            Not After : Apr 19 22:31:22 2029 GMT
        Subject: CN=pluto
        Subject Public Key Info:
            Public Key Algorithm: rsaEncryption
                Public-Key: (1024 bit)
                Modulus:
                    00:96:dd:38:6c:f5:6a:d5:c1:69:6b:81:97:91:a0:
                    05:be:53:2b:96:b5:cb:25:4c:f8:35:81:0e:aa:81:
                    66:49:10:58:cf:0c:8e:d1:01:2a:0a:38:ae:a2:e0:
                    8c:8a:7d:cf:d0:44:09:90:59:d7:02:6e:aa:fa:72:
                    6e:34:31:d8:ff:c5:69:90:f5:d9:17:b1:8d:0e:df:
                    8b:b1:2b:f8:7d:0d:7e:0b:6e:ba:05:b7:5f:da:d8:
                    2f:e5:66:11:37:f9:20:af:8e:f1:42:c3:6d:f0:00:
                    bb:72:90:08:c7:26:84:04:b1:48:dd:8e:72:20:20:
                    30:04:31:b4:71:7b:92:b7:17
                Exponent: 65537 (0x10001)
    Signature Algorithm: sha256WithRSAEncryption
         57:cd:20:5c:a5:26:46:6d:88:4d:ae:5b:4d:a2:d2:37:09:0e:
         81:6f:ed:01:9a:45:a0:ef:ac:51:33:f3:70:b6:f7:bf:1d:1e:
         a6:e6:c3:15:bd:80:f8:01:d5:ed:a3:78:f5:56:4e:00:1f:47:
         d9:e7:04:81:a8:bc:f0:b9:30:fa:67:02:75:0c:5c:e8:ea:71:
         3f:36:4a:1b:39:62:eb:ab:ad:46:2d:93:74:6d:5b:b7:87:fc:
         b3:0b:bd:d7:11:4e:2b:59:87:bc:29:31:da:a5:74:07:e2:46:
         dc:1c:a6:cb:20:fc:4b:f0:c3:31:01:1d:f9:1a:76:c9:f2:68:
         dd:c2
-----BEGIN CERTIFICATE-----
MIIBqTCCARKgAwIBAgIBBzANBgkqhkiG9w0BAQsFADAlMSMwIQYDVQQDDBpUZXN0
IENBIEFnZW50IFN1YmF1dGhvcml0eTAeFw03MDAxMDEwMDAwMDBaFw0yOTA0MTky
MjMxMjJaMBAxDjAMBgNVBAMMBXBsdXRvMIGfMA0GCSqGSIb3DQEBAQUAA4GNADCB
iQKBgQCW3Ths9WrVwWlrgZeRoAW+UyuWtcslTPg1gQ6qgWZJEFjPDI7RASoKOK6i
4IyKfc/QRAmQWdcCbqr6cm40Mdj/xWmQ9dkXsY0O34uxK/h9DX4LbroFt1/a2C/l
ZhE3+SCvjvFCw23wALtykAjHJoQEsUjdjnIgIDAEMbRxe5K3FwIDAQABMA0GCSqG
SIb3DQEBCwUAA4GBAFfNIFylJkZtiE2uW02i0jcJDoFv7QGaRaDvrFEz83C2978d
HqbmwxW9gPgB1e2jePVWTgAfR9nnBIGovPC5MPpnAnUMXOjqcT82Shs5YuurrUYt
k3RtW7eH/LMLvdcRTitZh7wpMdqldAfiRtwcpssg/EvwwzEBHfkadsnyaN3C
-----END CERTIFICATE-----
