Certificate:
    Data:
        Version: 3 (0x2)
        Serial Number: 11 (0xb)
        Signature Algorithm: sha256WithRSAEncryption
        Issuer: CN=Test CA Agent Subauthority
        Validity
            Not Before: Jan  1 00:00:00 1970 GMT
            Not After : Jun 24 21:18:00 2033 GMT
        Subject: CN=pluto
        Subject Public Key Info:
            Public Key Algorithm: rsaEncryption
                Public-Key: (2048 bit)
                Modulus:
                    00:a1:e2:44:51:1d:f3:95:9a:29:9d:d1:a5:3f:b5:
                    57:e4:2d:cb:45:94:b8:d8:80:9b:f1:e0:de:81:b9:
                    50:0a:37:24:34:91:b3:43:c7:ad:fb:eb:91:de:62:
                    15:39:70:6c:be:48:4d:98:2b:82:fb:74:6a:5e:26:
                    38:49:0a:5c:81:c0:1a:90:b8:15:70:60:a9:80:2f:
                    3b:b8:3e:f3:57:c8:75:bb:34:da:17:68:3f:00:04:
                    2d:fe:97:24:cc:2c:3c:d7:ca:81:53:46:f6:7c:ec:
                    9a:55:b2:b7:97:dd:3a:76:e3:c8:89:0c:19:40:dd:
                    17:63:36:66:5c:ad:17:e8:2b:02:98:54:e7:bf:0d:
                    5d:b0:5c:97:4b:23:99:ce:97:f9:59:e5:1e:ba:33:
                    6e:35:39:ef:7b:a0:62:4b:ac:91:05:8f:79:5b:7c:
                    82:88:41:e7:dc:51:1c:7d:80:3e:1c:aa:92:f0:7f:
                    67:5f:18:09:8a:35:02:82:4b:38:c0:03:8d:20:51:
                    d8:b2:18:63:96:9a:68:6e:e5:ae:5a:08:09:c2:01:
                    2f:2b:be:54:6b:c9:77:75:2e:71:30:b6:26:d9:5a:
                    12:0c:75:47:2e:c6:c2:b0:82:2f:64:5b:f0:b3:68:
                    af:83:8c:97:06:fc:99:5f:95:dc:ac:4e:99:95:b3:
                    47:cb
                Exponent: 65537 (0x10001)
    Signature Algorithm: sha256WithRSAEncryption
    Signature Value:
        5c:74:cb:17:df:f2:1e:a8:de:4b:cd:c9:45:ee:d8:46:94:be:
        19:e8:2f:66:28:01:29:18:4e:0e:b3:59:66:9d:d4:44:e2:44:
        f0:34:e2:2c:08:d9:d3:ae:e0:70:77:79:32:4a:56:8c:11:84:
        c2:8d:be:bc:c9:80:6f:f2:fb:fd:bc:96:7e:76:59:c7:46:12:
        14:69:51:65:26:83:60:bf:f6:e9:f3:76:25:65:c2:12:4c:7f:
        8b:3e:53:ba:8b:48:6e:e8:c2:a9:03:26:dc:af:58:3e:77:20:
        a9:d6:0f:15:ea:7d:28:df:1d:88:7b:72:59:56:58:7a:46:b3:
        2d:ca:3b:e8:fc:21:9b:fd:c2:c7:3d:24:78:7f:ad:23:b6:4b:
        83:f0:d1:8a:40:8f:66:44:79:fb:ae:23:e5:5f:3e:3c:93:33:
        34:cd:15:00:d7:d7:96:bb:61:42:8b:a2:07:0b:03:88:5f:b2:
        47:a1:c3:66:eb:3a:b3:70:b1:44:61:10:c5:da:a6:34:9a:f6:
        d3:c1:70:94:7c:6c:1f:ec:12:dc:c5:76:b6:58:92:a2:e7:3a:
        7a:ea:8b:bf:96:57:f8:dc:ed:28:97:3f:b7:d9:96:ff:e9:42:
        49:0a:02:9c:5e:44:84:9c:1f:c5:12:a0:3f:d5:14:0c:7f:e6:
        3e:db:c0:3d
-----BEGIN CERTIFICATE-----
MIICrjCCAZagAwIBAgIBCzANBgkqhkiG9w0BAQsFADAlMSMwIQYDVQQDDBpUZXN0
IENBIEFnZW50IFN1YmF1dGhvcml0eTAeFw03MDAxMDEwMDAwMDBaFw0zMzA2MjQy
MTE4MDBaMBAxDjAMBgNVBAMMBXBsdXRvMIIBIjANBgkqhkiG9w0BAQEFAAOCAQ8A
MIIBCgKCAQEAoeJEUR3zlZopndGlP7VX5C3LRZS42ICb8eDegblQCjckNJGzQ8et
++uR3mIVOXBsvkhNmCuC+3RqXiY4SQpcgcAakLgVcGCpgC87uD7zV8h1uzTaF2g/
AAQt/pckzCw818qBU0b2fOyaVbK3l906duPIiQwZQN0XYzZmXK0X6CsCmFTnvw1d
sFyXSyOZzpf5WeUeujNuNTnve6BiS6yRBY95W3yCiEHn3FEcfYA+HKqS8H9nXxgJ
ijUCgks4wAONIFHYshhjlppobuWuWggJwgEvK75Ua8l3dS5xMLYm2VoSDHVHLsbC
sIIvZFvws2ivg4yXBvyZX5XcrE6ZlbNHywIDAQABMA0GCSqGSIb3DQEBCwUAA4IB
AQBcdMsX3/IeqN5LzclF7thGlL4Z6C9mKAEpGE4Os1lmndRE4kTwNOIsCNnTruBw
d3kySlaMEYTCjb68yYBv8vv9vJZ+dlnHRhIUaVFlJoNgv/bp83YlZcISTH+LPlO6
i0hu6MKpAybcr1g+dyCp1g8V6n0o3x2Ie3JZVlh6RrMtyjvo/CGb/cLHPSR4f60j
tkuD8NGKQI9mRHn7riPlXz48kzM0zRUA19eWu2FCi6IHCwOIX7JHocNm6zqzcLFE
YRDF2qY0mvbTwXCUfGwf7BLcxXa2WJKi5zp66ou/llf43O0olz+32Zb/6UJJCgKc
XkSEnB/FEqA/1RQMf+Y+28A9
-----END CERTIFICATE-----
