Certificate:
    Data:
        Version: 3 (0x2)
        Serial Number: 9 (0x9)
        Signature Algorithm: sha256WithRSAEncryption
        Issuer: CN=Test CA Agent Subauthority
        Validity
            Not Before: Jan  1 00:00:00 1970 GMT
            Not After : Apr 18 18:46:23 2031 GMT
        Subject: CN=pluto
        Subject Public Key Info:
            Public Key Algorithm: rsaEncryption
                RSA Public-Key: (2048 bit)
                Modulus:
                    00:af:60:0e:10:6c:0e:f7:88:5c:38:9b:66:d3:4e:
                    69:ed:ad:d0:d4:31:8f:22:81:e0:94:53:0a:32:74:
                    06:92:ab:48:ad:af:e9:e6:60:d5:83:f2:c3:a5:29:
                    1e:48:d8:91:9c:fd:5e:f6:e9:ea:a3:89:02:45:2c:
                    d8:63:d1:18:ff:67:10:11:6d:0f:32:a6:8a:43:02:
                    f1:5f:0a:95:ef:31:90:0d:af:84:46:4c:3b:7a:dd:
                    aa:07:aa:4d:b0:56:0e:dc:4d:1d:d0:be:d5:13:fd:
                    af:40:69:01:1a:4d:d5:e5:d7:78:65:f9:b4:ca:00:
                    91:e5:45:a0:cb:e8:c0:20:5b:80:fb:db:00:9c:a5:
                    1f:59:8f:e8:9c:21:56:90:a9:30:11:4d:65:84:82:
                    28:de:6e:54:20:79:4a:ec:00:b0:26:08:60:47:ef:
                    3a:bb:24:62:53:bb:e1:28:57:d3:77:2c:56:48:dd:
                    dc:40:dc:7d:b2:1f:1f:c5:0a:d5:0a:9e:73:de:0f:
                    57:9e:e3:d5:cf:2f:58:2a:aa:a8:8f:8b:ad:e9:78:
                    c4:b8:69:0c:c6:8f:5a:9c:f5:24:c3:76:20:e8:cd:
                    98:98:6b:06:89:e1:ad:5e:c0:8e:c5:1e:cf:d5:c5:
                    b1:f2:96:fc:a2:90:1e:4c:c8:7f:7b:f8:8e:dd:9e:
                    aa:17
                Exponent: 65537 (0x10001)
    Signature Algorithm: sha256WithRSAEncryption
         0a:2a:22:ca:3c:6e:fb:29:47:7f:f3:28:ff:2f:7f:4e:ce:66:
         43:a2:ef:40:eb:22:9e:95:d0:06:31:0f:a6:cb:20:bf:e5:e5:
         5b:7f:32:d3:6d:d4:b5:0b:b0:69:eb:f5:73:ea:64:8e:8f:9d:
         84:56:a5:dd:f7:ea:6e:20:ae:3a:9d:9c:1e:0e:ca:52:14:8b:
         a2:60:99:24:10:72:33:40:57:16:ee:c5:19:40:31:9e:07:88:
         06:24:45:07:b1:19:9f:b7:88:c6:64:04:83:b4:8e:a3:b6:70:
         ee:46:10:d8:42:0d:ad:50:41:0f:2b:89:0b:c7:98:e9:9a:59:
         21:2b:a1:0d:d0:24:a0:e1:56:1e:c7:83:be:0e:bd:64:dc:5d:
         19:c3:92:5a:f6:57:70:a5:7d:b9:0a:5f:d6:18:90:d0:3e:6d:
         e1:ae:8f:bb:e8:f7:c7:16:cd:31:89:5a:9f:93:0b:9e:03:8b:
         66:7f:b5:06:72:a3:86:24:25:33:8a:08:64:15:45:91:ef:a6:
         53:1d:5a:0a:b6:03:b8:3d:73:b5:ad:dc:69:6f:24:d0:ec:b6:
         5e:1a:f0:0f:b1:69:47:1a:71:e3:43:1e:e4:c2:8f:54:61:e1:
         17:ce:44:a9:3f:6a:55:a1:db:5e:d8:4d:c8:36:22:22:f8:ca:
         67:b8:85:42
-----BEGIN CERTIFICATE-----
MIICrjCCAZagAwIBAgIBCTANBgkqhkiG9w0BAQsFADAlMSMwIQYDVQQDDBpUZXN0
IENBIEFnZW50IFN1YmF1dGhvcml0eTAeFw03MDAxMDEwMDAwMDBaFw0zMTA0MTgx
ODQ2MjNaMBAxDjAMBgNVBAMMBXBsdXRvMIIBIjANBgkqhkiG9w0BAQEFAAOCAQ8A
MIIBCgKCAQEAr2AOEGwO94hcOJtm005p7a3Q1DGPIoHglFMKMnQGkqtIra/p5mDV
g/LDpSkeSNiRnP1e9unqo4kCRSzYY9EY/2cQEW0PMqaKQwLxXwqV7zGQDa+ERkw7
et2qB6pNsFYO3E0d0L7VE/2vQGkBGk3V5dd4Zfm0ygCR5UWgy+jAIFuA+9sAnKUf
WY/onCFWkKkwEU1lhIIo3m5UIHlK7ACwJghgR+86uyRiU7vhKFfTdyxWSN3cQNx9
sh8fxQrVCp5z3g9XnuPVzy9YKqqoj4ut6XjEuGkMxo9anPUkw3Yg6M2YmGsGieGt
XsCOxR7P1cWx8pb8opAeTMh/e/iO3Z6qFwIDAQABMA0GCSqGSIb3DQEBCwUAA4IB
AQAKKiLKPG77KUd/8yj/L39OzmZDou9A6yKeldAGMQ+myyC/5eVbfzLTbdS1C7Bp
6/Vz6mSOj52EVqXd9+puIK46nZweDspSFIuiYJkkEHIzQFcW7sUZQDGeB4gGJEUH
sRmft4jGZASDtI6jtnDuRhDYQg2tUEEPK4kLx5jpmlkhK6EN0CSg4VYex4O+Dr1k
3F0Zw5Ja9ldwpX25Cl/WGJDQPm3hro+76PfHFs0xiVqfkwueA4tmf7UGcqOGJCUz
ighkFUWR76ZTHVoKtgO4PXO1rdxpbyTQ7LZeGvAPsWlHGnHjQx7kwo9UYeEXzkSp
P2pVodte2E3INiIi+MpnuIVC
-----END CERTIFICATE-----
