Certificate:
    Data:
        Version: 3 (0x2)
        Serial Number: 6 (0x6)
    Signature Algorithm: sha256WithRSAEncryption
        Issuer: CN=Test CA Agent Subauthority
        Validity
            Not Before: Jan  1 00:00:00 1970 GMT
            Not After : Mar  9 21:35:53 2029 GMT
        Subject: CN=pluto
        Subject Public Key Info:
            Public Key Algorithm: rsaEncryption
                Public-Key: (1024 bit)
                Modulus:
                    00:d0:24:0c:ff:0a:c3:9c:15:95:f1:38:7f:5d:be:
                    1f:d0:cc:1f:38:30:66:e7:36:a5:fd:a6:c1:52:b9:
                    34:7c:61:b6:ef:42:f9:ef:9c:cb:2e:1a:80:0f:c3:
                    45:52:2b:a7:d2:fd:32:b7:75:95:7c:63:f7:5b:98:
                    5c:4a:8d:6a:fd:ac:a7:d2:fb:1e:93:e8:39:19:22:
                    f5:78:ea:41:76:12:e9:2a:a0:66:65:2a:55:76:cd:
                    9d:7d:43:10:b7:ff:8a:e4:22:6d:35:0c:00:ff:ba:
                    8b:e1:00:20:87:9a:fd:64:0b:16:c4:e7:36:95:43:
                    ef:e9:5e:e9:50:4b:90:3e:c5
                Exponent: 65537 (0x10001)
    Signature Algorithm: sha256WithRSAEncryption
         9f:99:01:ae:86:0a:bf:b3:03:5a:94:72:47:6e:61:97:6b:44:
         c6:9f:c4:1e:7e:5e:41:e0:1e:11:8e:d0:68:0a:c0:bb:5d:7d:
         9a:e4:93:ba:df:9f:77:3c:26:ee:7f:e0:2c:45:b4:17:64:af:
         5c:92:f9:7f:b1:5d:2c:8b:25:bd:ed:3b:e3:db:ca:1a:a0:41:
         c2:9f:9c:17:78:d2:b4:9c:83:65:f5:42:10:94:3b:81:f5:e0:
         35:3f:6c:3e:ef:41:a9:85:9c:06:07:e5:95:0b:81:9b:92:91:
         ab:d2:c6:fe:0f:28:4a:60:8e:dd:5b:36:58:d6:62:75:5a:47:
         c1:30
-----BEGIN CERTIFICATE-----
MIIBqTCCARKgAwIBAgIBBjANBgkqhkiG9w0BAQsFADAlMSMwIQYDVQQDDBpUZXN0
IENBIEFnZW50IFN1YmF1dGhvcml0eTAeFw03MDAxMDEwMDAwMDBaFw0yOTAzMDky
MTM1NTNaMBAxDjAMBgNVBAMMBXBsdXRvMIGfMA0GCSqGSIb3DQEBAQUAA4GNADCB
iQKBgQDQJAz/CsOcFZXxOH9dvh/QzB84MGbnNqX9psFSuTR8YbbvQvnvnMsuGoAP
w0VSK6fS/TK3dZV8Y/dbmFxKjWr9rKfS+x6T6DkZIvV46kF2EukqoGZlKlV2zZ19
QxC3/4rkIm01DAD/uovhACCHmv1kCxbE5zaVQ+/pXulQS5A+xQIDAQABMA0GCSqG
SIb3DQEBCwUAA4GBAJ+ZAa6GCr+zA1qUckduYZdrRMafxB5+XkHgHhGO0GgKwLtd
fZrkk7rfn3c8Ju5/4CxFtBdkr1yS+X+xXSyLJb3tO+PbyhqgQcKfnBd40rScg2X1
QhCUO4H14DU/bD7vQamFnAYH5ZULgZuSkavSxv4PKEpgjt1bNljWYnVaR8Ew
-----END CERTIFICATE-----
