Certificate:
    Data:
        Version: 3 (0x2)
        Serial Number: 5 (0x5)
        Signature Algorithm: sha256WithRSAEncryption
        Issuer: CN=Test CA Subauthority
        Validity
            Not Before: Jan  1 00:00:00 1970 GMT
            Not After : Jan 27 18:43:32 2034 GMT
        Subject: CN=renewed
        Subject Public Key Info:
            Public Key Algorithm: rsaEncryption
                RSA Public-Key: (2048 bit)
                Modulus:
                    00:ac:0d:e2:e1:62:ee:7a:55:f6:46:0a:5f:ed:dc:
                    4a:a6:d4:d0:19:7f:a8:4d:cd:a0:c1:61:d4:e8:78:
                    50:d4:5d:40:1f:e0:c3:79:26:95:19:4c:cd:70:10:
                    53:38:b1:68:e4:7e:d4:44:65:68:94:8c:b6:ab:d2:
                    22:36:d8:b0:92:ba:ed:3f:00:ec:b0:b6:5f:26:ac:
                    f7:2b:71:e4:d7:8a:28:49:a8:fe:f9:a1:c8:b8:09:
                    73:8c:f7:d3:90:ab:ed:74:fb:25:29:bf:81:51:b3:
                    ac:02:81:ba:c1:7f:8a:ad:d7:18:6d:d0:73:1e:7f:
                    d9:54:ed:0b:a2:a6:d7:7e:22:e1:3f:a3:6d:77:4a:
                    9e:17:68:42:ef:99:63:e0:0f:5c:35:4e:3a:ef:5a:
                    84:3c:c6:c1:ac:78:c5:fe:60:56:f4:e5:86:7d:60:
                    1b:55:3c:bd:6a:c8:22:ea:b6:c3:f6:8a:67:e8:cb:
                    5d:23:61:44:4b:9e:24:f8:91:69:25:90:0b:d7:2e:
                    84:3f:c1:a2:8f:87:68:a8:36:b3:a7:b3:c8:0e:06:
                    bd:6b:f3:54:41:d2:47:49:a7:2f:9b:3c:2f:37:89:
                    46:12:90:95:fe:6a:6f:5e:29:c6:d9:ea:90:47:29:
                    1b:85:1e:d3:19:e9:80:40:f7:33:67:bb:e5:17:50:
                    5c:cd
                Exponent: 65537 (0x10001)
    Signature Algorithm: sha256WithRSAEncryption
         11:65:97:e8:a7:de:13:c9:de:80:c2:7b:06:71:f7:de:23:75:
         6d:7a:fe:ad:cf:27:a6:29:c0:5c:c0:0e:4c:92:60:90:59:e0:
         f6:ab:00:cd:9b:04:cb:36:f1:b3:02:b8:76:75:63:7f:fe:7c:
         6d:7e:b9:c6:74:44:4d:73:da:02:90:05:de:8b:fa:83:b2:42:
         a2:2d:50:7f:31:d3:c8:3c:90:8a:6d:f5:a1:d8:46:eb:5b:97:
         89:bf:52:6f:7a:36:fd:dd:fc:fe:d0:2a:6b:3b:fb:5d:fc:e8:
         ee:3f:03:75:d0:6a:f7:78:9f:f2:37:f9:24:a1:04:96:db:da:
         0c:54:19:84:bb:a8:d8:88:61:aa:f9:08:a6:87:6b:cd:24:73:
         e0:c3:03:1a:6b:66:a6:df:ab:f1:0f:fc:2d:77:fb:11:c2:2f:
         a8:18:d9:26:a7:af:55:d1:1b:13:48:f1:6e:08:2b:83:90:8f:
         37:ef:de:19:3c:34:97:d6:d8:b5:04:48:aa:83:8c:f9:73:a5:
         02:93:2d:45:dd:05:77:80:4b:a3:13:88:e7:ce:24:58:33:b6:
         42:5b:cf:91:9a:ab:6e:15:38:b1:a1:2c:01:b0:e0:9b:25:00:
         7f:b0:30:6e:06:70:b3:ee:45:56:bb:04:b4:b6:7d:18:17:df:
         bc:a3:89:87
-----BEGIN CERTIFICATE-----
MIICqjCCAZKgAwIBAgIBBTANBgkqhkiG9w0BAQsFADAfMR0wGwYDVQQDDBRUZXN0
IENBIFN1YmF1dGhvcml0eTAeFw03MDAxMDEwMDAwMDBaFw0zNDAxMjcxODQzMzJa
MBIxEDAOBgNVBAMMB3JlbmV3ZWQwggEiMA0GCSqGSIb3DQEBAQUAA4IBDwAwggEK
AoIBAQCsDeLhYu56VfZGCl/t3Eqm1NAZf6hNzaDBYdToeFDUXUAf4MN5JpUZTM1w
EFM4sWjkftREZWiUjLar0iI22LCSuu0/AOywtl8mrPcrceTXiihJqP75oci4CXOM
99OQq+10+yUpv4FRs6wCgbrBf4qt1xht0HMef9lU7Quiptd+IuE/o213Sp4XaELv
mWPgD1w1TjrvWoQ8xsGseMX+YFb05YZ9YBtVPL1qyCLqtsP2imfoy10jYURLniT4
kWklkAvXLoQ/waKPh2ioNrOns8gOBr1r81RB0kdJpy+bPC83iUYSkJX+am9eKcbZ
6pBHKRuFHtMZ6YBA9zNnu+UXUFzNAgMBAAEwDQYJKoZIhvcNAQELBQADggEBABFl
l+in3hPJ3oDCewZx994jdW16/q3PJ6YpwFzADkySYJBZ4ParAM2bBMs28bMCuHZ1
Y3/+fG1+ucZ0RE1z2gKQBd6L+oOyQqItUH8x08g8kIpt9aHYRutbl4m/Um96Nv3d
/P7QKms7+1386O4/A3XQavd4n/I3+SShBJbb2gxUGYS7qNiIYar5CKaHa80kc+DD
AxprZqbfq/EP/C13+xHCL6gY2Sanr1XRGxNI8W4IK4OQjzfv3hk8NJfW2LUESKqD
jPlzpQKTLUXdBXeAS6MTiOfOJFgztkJbz5Gaq24VOLGhLAGw4JslAH+wMG4GcLPu
RVa7BLS2fRgX37yjiYc=
-----END CERTIFICATE-----
