Certificate:
    Data:
        Version: 3 (0x2)
        Serial Number: 5 (0x5)
        Signature Algorithm: sha256WithRSAEncryption
        Issuer: CN=Test CA Subauthority
        Validity
            Not Before: Jan  1 00:00:00 1970 GMT
            Not After : Jun 24 21:18:00 2033 GMT
        Subject: CN=renewed
        Subject Public Key Info:
            Public Key Algorithm: rsaEncryption
                Public-Key: (2048 bit)
                Modulus:
                    00:c4:7f:b6:dd:ab:a8:58:7f:49:48:9d:bd:6f:91:
                    9a:ea:bc:8c:3c:20:5f:ec:3b:30:4e:c2:c5:98:8e:
                    52:27:74:d9:d1:28:7e:6a:09:b1:fc:ea:d2:28:a7:
                    48:30:b8:bc:93:11:e8:56:93:bf:02:86:1c:78:16:
                    0b:b8:c3:ce:aa:b1:27:de:c6:96:20:f8:d4:8e:63:
                    58:b3:05:c6:df:a7:eb:eb:85:14:98:04:0e:d7:99:
                    17:81:0c:15:0b:c7:f0:bf:14:a5:8e:e9:5b:88:65:
                    e9:b4:3e:9f:77:f4:77:60:dd:aa:75:e9:f2:75:07:
                    a8:47:17:a3:79:f1:e5:ea:01:80:25:5a:5a:1b:fb:
                    8d:6e:17:c7:b8:7d:bb:1d:ec:67:bf:c9:83:8f:28:
                    02:99:83:16:f4:2c:f0:94:25:1b:7f:f0:99:fb:ec:
                    75:63:88:97:2f:1d:f8:bf:14:92:3b:df:ed:a0:56:
                    0c:94:c6:92:b4:91:e2:85:88:de:99:93:00:17:b0:
                    f1:ed:45:03:8f:07:2e:5a:e5:82:6a:99:6f:45:00:
                    54:2a:37:93:77:23:06:c3:99:fa:c1:1f:4c:59:63:
                    e1:35:b9:f7:f6:ab:81:a5:11:ef:9c:a1:e6:64:ab:
                    2f:fc:f9:cd:b3:d0:b7:33:81:4c:36:13:03:3a:5e:
                    e6:e5
                Exponent: 65537 (0x10001)
    Signature Algorithm: sha256WithRSAEncryption
    Signature Value:
        be:f3:06:34:39:36:1e:41:38:64:bd:c8:01:05:b4:6d:f5:df:
        44:2f:17:e5:86:b9:15:96:5e:94:38:2d:63:4a:54:90:21:cf:
        d5:3e:e3:6e:0f:bf:0d:b9:9b:e9:a8:53:cb:38:c3:9b:88:af:
        0c:c9:fa:2a:9b:0f:cc:be:d6:15:e8:fe:1d:6b:cb:30:3e:28:
        c2:a5:87:69:be:8d:51:17:ed:c3:7f:e0:05:c2:3c:5c:d7:89:
        d6:69:f2:44:25:1a:55:31:76:0f:83:4e:d7:30:d2:d5:82:eb:
        e8:a3:75:15:01:b7:96:ca:4b:05:ca:81:6f:80:26:38:c5:5e:
        a2:1c:24:0d:4a:bb:4a:41:51:9a:d1:ed:7e:bc:ad:1c:6a:cd:
        fc:c4:53:11:14:a5:ff:a1:60:0b:3a:04:35:c4:03:a2:56:24:
        92:a4:b6:e9:c0:c5:f5:2d:16:60:97:89:92:08:03:48:c2:ef:
        9f:d1:7e:a7:56:ec:12:26:7f:36:0c:3b:7c:65:82:77:ba:0d:
        28:fb:d2:e0:5c:19:5e:56:11:38:12:54:b6:b9:eb:55:3a:08:
        81:e3:db:bc:6d:1a:c9:90:e2:1f:47:fa:55:23:c7:d0:e4:ba:
        44:23:a8:39:52:fe:52:fc:6c:c8:4a:97:7d:4c:47:ab:21:79:
        9f:25:bf:35
-----BEGIN CERTIFICATE-----
MIICqjCCAZKgAwIBAgIBBTANBgkqhkiG9w0BAQsFADAfMR0wGwYDVQQDDBRUZXN0
IENBIFN1YmF1dGhvcml0eTAeFw03MDAxMDEwMDAwMDBaFw0zMzA2MjQyMTE4MDBa
MBIxEDAOBgNVBAMMB3JlbmV3ZWQwggEiMA0GCSqGSIb3DQEBAQUAA4IBDwAwggEK
AoIBAQDEf7bdq6hYf0lInb1vkZrqvIw8IF/sOzBOwsWYjlIndNnRKH5qCbH86tIo
p0gwuLyTEehWk78Chhx4Fgu4w86qsSfexpYg+NSOY1izBcbfp+vrhRSYBA7XmReB
DBULx/C/FKWO6VuIZem0Pp939Hdg3ap16fJ1B6hHF6N58eXqAYAlWlob+41uF8e4
fbsd7Ge/yYOPKAKZgxb0LPCUJRt/8Jn77HVjiJcvHfi/FJI73+2gVgyUxpK0keKF
iN6ZkwAXsPHtRQOPBy5a5YJqmW9FAFQqN5N3IwbDmfrBH0xZY+E1uff2q4GlEe+c
oeZkqy/8+c2z0LczgUw2EwM6XublAgMBAAEwDQYJKoZIhvcNAQELBQADggEBAL7z
BjQ5Nh5BOGS9yAEFtG3130QvF+WGuRWWXpQ4LWNKVJAhz9U+424Pvw25m+moU8s4
w5uIrwzJ+iqbD8y+1hXo/h1ryzA+KMKlh2m+jVEX7cN/4AXCPFzXidZp8kQlGlUx
dg+DTtcw0tWC6+ijdRUBt5bKSwXKgW+AJjjFXqIcJA1Ku0pBUZrR7X68rRxqzfzE
UxEUpf+hYAs6BDXEA6JWJJKktunAxfUtFmCXiZIIA0jC75/RfqdW7BImfzYMO3xl
gne6DSj70uBcGV5WETgSVLa561U6CIHj27xtGsmQ4h9H+lUjx9DkukQjqDlS/lL8
bMhKl31MR6sheZ8lvzU=
-----END CERTIFICATE-----
