Certificate Request:
    Data:
        Version: Unknown (2)
        Subject: CN=pending
        Subject Public Key Info:
            Public Key Algorithm: rsaEncryption
                Public-Key: (2048 bit)
                Modulus:
                    00:c2:92:fa:28:25:5c:fe:d2:29:cb:70:b2:91:56:
                    cc:94:18:3d:f3:d6:e0:c9:fe:3e:92:c9:11:35:ac:
                    40:20:37:7e:1d:73:dc:45:67:50:29:8d:c4:40:be:
                    ae:53:4b:0e:58:22:b1:cc:fe:6c:da:3c:a7:ed:e4:
                    1c:ab:33:94:e6:40:85:44:c3:78:28:cb:c3:3d:c3:
                    fd:cc:91:d7:36:2c:f2:1f:01:f6:93:2c:00:cf:70:
                    d0:42:55:62:af:b3:93:5e:57:b7:03:0c:d9:22:b0:
                    d6:68:26:c6:d2:d7:32:7a:57:e6:96:bb:b0:69:71:
                    ad:77:48:64:ab:3b:4e:e5:ea:03:f4:d9:0f:5c:04:
                    4e:60:d3:b7:d7:89:c6:a2:50:b5:f4:da:f6:69:d5:
                    11:a8:50:67:a2:fd:ec:15:4f:13:22:8f:c7:74:ac:
                    84:31:c6:7f:1a:d1:9e:12:bf:dd:69:b6:79:46:ac:
                    e5:d2:d9:ae:59:51:77:e5:2a:6e:13:c4:a8:99:68:
                    d2:18:cd:3b:07:92:b7:7a:ad:a2:09:f6:ac:2d:2c:
                    47:4a:ce:2c:cc:fc:79:db:cf:71:41:1b:f0:0c:c5:
                    74:a8:2f:a4:18:7f:1f:45:35:b2:4d:d0:43:a2:62:
                    56:98:0f:6f:62:74:ad:8b:62:a8:8b:9b:5d:a8:23:
                    24:0d
                Exponent: 65537 (0x10001)
        Attributes:
            (none)
            Requested Extensions:
    Signature Algorithm: sha256WithRSAEncryption
    Signature Value:
        6c:33:bb:a7:17:97:ea:c8:e1:5c:d2:f6:43:bf:25:b7:5e:d6:
        86:6b:d0:0b:2f:9e:1f:4b:24:98:e3:a7:6c:b3:3c:aa:a7:4d:
        4c:9f:77:80:c8:2b:6a:d4:1e:90:bf:8b:31:2b:33:68:e9:55:
        e5:41:82:10:f2:28:53:89:a8:97:00:05:d5:0f:48:22:38:0a:
        69:ce:de:12:06:8c:f7:28:df:a9:d3:34:61:7e:31:a4:e9:13:
        d3:de:e8:b9:81:bf:66:49:08:bd:3f:fd:63:6a:97:29:fa:42:
        65:4a:b4:46:59:b9:63:12:f4:1e:f2:89:e6:17:6d:6f:28:fd:
        10:d4:b8:9a:00:51:27:48:ef:65:41:76:c7:32:00:ac:d4:84:
        2e:25:ee:b0:27:4d:f6:9f:75:b7:1a:92:ef:10:91:15:85:b9:
        3c:8b:c9:c0:95:74:20:b6:46:d7:cb:5d:51:f8:b6:cf:52:0c:
        70:9f:20:e0:63:21:d3:95:a9:e8:a5:7f:1d:71:32:22:a3:79:
        bc:b8:e8:15:f9:a7:4e:26:b3:3e:3a:43:83:3c:23:05:98:18:
        be:54:a7:ed:b3:cb:33:8d:22:0b:a0:1c:9b:fd:8b:d5:07:09:
        bf:ad:31:06:02:a8:93:3a:ea:d6:75:a5:a1:72:1a:1b:f1:8c:
        8c:47:0f:f7
-----BEGIN CERTIFICATE REQUEST-----
MIICVzCCAT8CAQIwEjEQMA4GA1UEAwwHcGVuZGluZzCCASIwDQYJKoZIhvcNAQEB
BQADggEPADCCAQoCggEBAMKS+iglXP7SKctwspFWzJQYPfPW4Mn+PpLJETWsQCA3
fh1z3EVnUCmNxEC+rlNLDlgiscz+bNo8p+3kHKszlOZAhUTDeCjLwz3D/cyR1zYs
8h8B9pMsAM9w0EJVYq+zk15XtwMM2SKw1mgmxtLXMnpX5pa7sGlxrXdIZKs7TuXq
A/TZD1wETmDTt9eJxqJQtfTa9mnVEahQZ6L97BVPEyKPx3SshDHGfxrRnhK/3Wm2
eUas5dLZrllRd+UqbhPEqJlo0hjNOweSt3qtogn2rC0sR0rOLMz8edvPcUEb8AzF
dKgvpBh/H0U1sk3QQ6JiVpgPb2J0rYtiqIubXagjJA0CAwEAAaAAMA0GCSqGSIb3
DQEBCwUAA4IBAQBsM7unF5fqyOFc0vZDvyW3XtaGa9ALL54fSySY46dsszyqp01M
n3eAyCtq1B6Qv4sxKzNo6VXlQYIQ8ihTiaiXAAXVD0giOAppzt4SBoz3KN+p0zRh
fjGk6RPT3ui5gb9mSQi9P/1japcp+kJlSrRGWbljEvQe8onmF21vKP0Q1LiaAFEn
SO9lQXbHMgCs1IQuJe6wJ032n3W3GpLvEJEVhbk8i8nAlXQgtkbXy11R+LbPUgxw
nyDgYyHTlanopX8dcTIio3m8uOgV+adOJrM+OkODPCMFmBi+VKfts8szjSILoByb
/YvVBwm/rTEGAqiTOurWdaWhchob8YyMRw/3
-----END CERTIFICATE REQUEST-----
