Certificate Request:
    Data:
        Version: 3 (0x2)
        Subject: CN=pending
        Subject Public Key Info:
            Public Key Algorithm: rsaEncryption
                RSA Public-Key: (2048 bit)
                Modulus:
                    00:ca:4a:fc:49:f0:75:de:db:71:88:87:f7:48:ec:
                    77:67:7c:38:a4:91:24:47:a4:85:1c:38:e4:ec:6d:
                    8a:aa:24:8d:fb:1c:41:ca:96:d7:92:70:14:9d:cc:
                    a7:26:d5:91:04:87:c3:9b:bc:7c:c2:7d:5f:8d:50:
                    75:d6:02:51:a3:38:94:b8:b8:63:4b:38:cf:08:0b:
                    c0:31:d9:a6:db:61:b7:11:32:95:ca:87:dc:54:21:
                    d1:bb:56:b9:2c:f2:c6:84:1f:54:df:09:d1:50:9d:
                    ae:97:45:f9:c0:66:58:d9:63:3e:fb:bf:af:e6:1a:
                    c8:ee:84:6b:cd:50:fe:dc:7a:52:74:17:3c:35:89:
                    4b:a7:48:3b:b8:84:ae:d1:0c:3c:5c:e0:e3:4c:20:
                    f8:aa:a4:70:4e:10:15:5e:a5:6e:6f:99:87:fd:79:
                    45:40:2b:6b:ec:e3:36:7a:ed:73:02:28:c7:cb:2e:
                    a0:ca:34:05:31:f5:98:c9:27:40:e6:e3:f3:26:2a:
                    25:cc:89:52:87:a0:33:a5:61:a2:c6:73:bd:a7:fc:
                    a6:0b:93:46:fe:3b:a7:6f:a3:3b:a4:6d:1e:1b:d1:
                    c4:28:09:ea:1d:b4:aa:f3:9a:fb:10:a2:b2:21:f2:
                    86:70:a4:b8:a8:df:4c:09:2c:fb:d2:48:a9:1c:3a:
                    4d:17
                Exponent: 65537 (0x10001)
        Attributes:
            a0:00
    Signature Algorithm: sha256WithRSAEncryption
         4b:33:bf:da:81:1a:39:41:11:c4:1c:d0:e5:3c:c6:93:8d:df:
         e5:91:c4:9f:d0:6b:07:61:94:25:d8:dc:9e:99:0d:9d:96:91:
         b3:92:ff:eb:2e:f4:93:cd:05:26:6d:42:70:7b:73:08:59:2f:
         4f:c8:7f:5a:ea:de:84:a8:62:b9:6b:6c:24:0a:89:6c:83:66:
         43:d2:f5:84:d2:09:63:9e:21:44:9f:70:4a:90:9e:9d:4a:e2:
         e6:b1:62:79:0f:12:cf:f7:91:39:31:e6:24:ee:96:bc:82:5f:
         4e:0e:a4:f3:81:75:6f:e3:59:bd:e2:8e:24:9e:3f:fd:c4:52:
         81:f6:0d:95:31:36:48:0b:29:4e:94:22:10:a6:25:1f:f9:a7:
         9d:e9:fc:8d:c9:33:87:1e:00:c9:f8:81:0e:d7:02:31:74:f7:
         57:ef:31:06:b8:fd:10:d3:43:a5:e9:ee:47:83:05:ac:8a:69:
         22:19:03:52:66:df:ee:0a:3c:82:33:23:9c:ef:c6:f2:e3:88:
         9e:03:aa:c1:ab:92:e5:ca:b7:ab:e9:ab:40:ab:8f:73:53:69:
         ca:19:89:8c:a5:e2:2f:9a:0b:31:59:17:08:03:4b:d5:6e:74:
         5a:d0:c8:b8:df:d7:39:88:45:cb:6a:02:d4:41:1c:f2:1e:b9:
         77:3f:09:80
-----BEGIN CERTIFICATE REQUEST-----
MIICVzCCAT8CAQIwEjEQMA4GA1UEAwwHcGVuZGluZzCCASIwDQYJKoZIhvcNAQEB
BQADggEPADCCAQoCggEBAMpK/Enwdd7bcYiH90jsd2d8OKSRJEekhRw45Oxtiqok
jfscQcqW15JwFJ3MpybVkQSHw5u8fMJ9X41QddYCUaM4lLi4Y0s4zwgLwDHZptth
txEylcqH3FQh0btWuSzyxoQfVN8J0VCdrpdF+cBmWNljPvu/r+YayO6Ea81Q/tx6
UnQXPDWJS6dIO7iErtEMPFzg40wg+KqkcE4QFV6lbm+Zh/15RUAra+zjNnrtcwIo
x8suoMo0BTH1mMknQObj8yYqJcyJUoegM6VhosZzvaf8pguTRv47p2+jO6RtHhvR
xCgJ6h20qvOa+xCisiHyhnCkuKjfTAks+9JIqRw6TRcCAwEAAaAAMA0GCSqGSIb3
DQEBCwUAA4IBAQBLM7/agRo5QRHEHNDlPMaTjd/lkcSf0GsHYZQl2NyemQ2dlpGz
kv/rLvSTzQUmbUJwe3MIWS9PyH9a6t6EqGK5a2wkColsg2ZD0vWE0gljniFEn3BK
kJ6dSuLmsWJ5DxLP95E5MeYk7pa8gl9ODqTzgXVv41m94o4knj/9xFKB9g2VMTZI
CylOlCIQpiUf+aed6fyNyTOHHgDJ+IEO1wIxdPdX7zEGuP0Q00Ol6e5HgwWsimki
GQNSZt/uCjyCMyOc78by44ieA6rBq5Llyrer6atAq49zU2nKGYmMpeIvmgsxWRcI
A0vVbnRa0Mi439c5iEXLagLUQRzyHrl3PwmA
-----END CERTIFICATE REQUEST-----
