Certificate Request:
    Data:
        Version: 3 (0x2)
        Subject: CN=pending
        Subject Public Key Info:
            Public Key Algorithm: rsaEncryption
                RSA Public-Key: (2048 bit)
                Modulus:
                    00:a8:02:d7:77:d2:93:b5:c3:7f:1b:4f:6f:cf:ba:
                    3b:ab:2c:07:de:7f:ce:ea:8e:21:54:29:39:7a:b7:
                    53:19:e1:1a:98:52:86:e9:22:ef:b4:30:b7:0a:d1:
                    52:40:cd:de:50:31:6e:93:f3:b2:03:8b:aa:23:d7:
                    86:23:fa:f3:8e:bc:af:a7:4a:86:3d:4f:58:d3:6c:
                    d6:6c:81:78:70:9c:6a:88:c0:e9:86:c6:76:1c:73:
                    53:ab:9f:47:01:4a:68:44:99:1e:15:ef:56:b6:1a:
                    2b:3d:28:a9:3e:b5:64:cf:8f:90:d7:e8:1a:70:52:
                    72:2c:d9:2e:a4:78:d9:4d:45:12:98:d1:a2:03:16:
                    d4:5a:eb:22:39:f5:4b:39:41:df:02:77:dd:62:0d:
                    1b:71:c1:8d:0a:b7:d9:a2:57:b6:0a:56:75:7f:6a:
                    cd:cc:3a:b5:06:db:80:55:36:03:89:65:a4:d3:82:
                    cf:b0:d3:d1:fd:07:ee:ab:27:07:95:c5:8b:e4:a8:
                    36:50:ac:83:17:ff:ff:05:6c:6e:fa:cb:46:4b:31:
                    14:db:c3:6b:aa:97:32:f5:a3:65:83:39:da:df:d9:
                    43:7f:01:62:d0:dc:09:4a:0a:aa:44:ff:42:6c:24:
                    e5:09:9a:c3:59:18:aa:30:60:38:bc:0a:93:4a:3c:
                    7d:55
                Exponent: 65537 (0x10001)
        Attributes:
            a0:00
    Signature Algorithm: sha256WithRSAEncryption
         7f:17:53:8b:56:b0:49:60:90:10:48:a0:76:88:39:65:6a:33:
         90:42:6b:1d:51:b1:8d:df:67:c0:02:ae:03:16:19:8b:dc:f5:
         e4:ef:99:a6:a7:97:cc:3c:cc:e0:ce:dd:14:a1:b7:f7:a5:a0:
         04:67:e0:63:b7:4a:8f:5b:c7:d9:ef:b8:4a:a0:77:ad:52:de:
         cf:05:c4:f5:29:5c:e1:7e:3c:f1:a5:6f:da:56:66:50:45:2e:
         49:d7:23:71:2a:4c:0a:9f:b3:6f:b8:ad:77:ad:08:e9:be:3c:
         14:8d:5e:48:44:40:b4:0f:00:1d:7d:ed:60:2d:fa:f5:c7:e8:
         5e:d0:8b:3d:da:0c:11:bc:bd:5f:37:93:7b:0a:20:03:0d:ce:
         e3:2c:c7:de:67:ae:07:d8:48:67:69:ad:1a:6e:03:31:23:f2:
         ca:05:d9:45:e9:8c:ce:e2:f7:e5:7d:da:50:0a:50:31:0b:3e:
         85:e7:11:6a:c4:00:8f:ea:c2:74:06:2b:c3:58:61:5a:8c:54:
         b4:7a:70:3d:a0:50:5a:35:79:35:32:0f:a6:90:4c:1a:74:ac:
         a7:f1:44:2a:29:06:68:c9:47:90:73:d6:1d:bc:7a:d8:48:39:
         25:8b:2e:a0:3a:32:ca:6f:b0:08:5c:2d:cb:54:2a:5c:39:94:
         45:01:95:3a
-----BEGIN CERTIFICATE REQUEST-----
MIICVzCCAT8CAQIwEjEQMA4GA1UEAwwHcGVuZGluZzCCASIwDQYJKoZIhvcNAQEB
BQADggEPADCCAQoCggEBAKgC13fSk7XDfxtPb8+6O6ssB95/zuqOIVQpOXq3Uxnh
GphShuki77QwtwrRUkDN3lAxbpPzsgOLqiPXhiP68468r6dKhj1PWNNs1myBeHCc
aojA6YbGdhxzU6ufRwFKaESZHhXvVrYaKz0oqT61ZM+PkNfoGnBScizZLqR42U1F
EpjRogMW1FrrIjn1SzlB3wJ33WING3HBjQq32aJXtgpWdX9qzcw6tQbbgFU2A4ll
pNOCz7DT0f0H7qsnB5XFi+SoNlCsgxf//wVsbvrLRksxFNvDa6qXMvWjZYM52t/Z
Q38BYtDcCUoKqkT/Qmwk5Qmaw1kYqjBgOLwKk0o8fVUCAwEAAaAAMA0GCSqGSIb3
DQEBCwUAA4IBAQB/F1OLVrBJYJAQSKB2iDllajOQQmsdUbGN32fAAq4DFhmL3PXk
75mmp5fMPMzgzt0Uobf3paAEZ+Bjt0qPW8fZ77hKoHetUt7PBcT1KVzhfjzxpW/a
VmZQRS5J1yNxKkwKn7NvuK13rQjpvjwUjV5IREC0DwAdfe1gLfr1x+he0Is92gwR
vL1fN5N7CiADDc7jLMfeZ64H2Ehnaa0abgMxI/LKBdlF6YzO4vflfdpQClAxCz6F
5xFqxACP6sJ0BivDWGFajFS0enA9oFBaNXk1Mg+mkEwadKyn8UQqKQZoyUeQc9Yd
vHrYSDkliy6gOjLKb7AIXC3LVCpcOZRFAZU6
-----END CERTIFICATE REQUEST-----
