Certificate Request:
    Data:
        Version: 3 (0x2)
        Subject: CN=pending
        Subject Public Key Info:
            Public Key Algorithm: rsaEncryption
                Public-Key: (1024 bit)
                Modulus:
                    00:da:5a:94:fd:77:48:51:fa:2b:1e:bb:38:32:17:
                    71:5d:93:32:5b:67:fa:18:53:d2:4c:86:ea:1a:ec:
                    7c:eb:fd:64:a5:d4:04:88:6d:92:8c:5f:8a:8a:02:
                    b5:c6:8e:c9:e4:a0:26:1c:7d:62:e0:1b:37:46:de:
                    0a:e1:1d:7b:79:1c:9a:b1:71:de:e0:c7:31:1d:00:
                    a6:98:fb:6e:32:a5:9b:bf:36:30:54:7a:13:14:fe:
                    2f:f3:75:a7:0c:bb:d8:96:15:05:eb:57:63:a1:cc:
                    1b:32:67:c1:dc:dc:b2:34:7b:23:00:70:f0:9a:5e:
                    6f:31:7f:f4:d1:cc:84:5f:25
                Exponent: 65537 (0x10001)
        Attributes:
            a0:00
    Signature Algorithm: sha256WithRSAEncryption
         39:d7:a3:20:cb:15:ab:97:97:32:ff:64:cd:ac:47:ab:3e:c3:
         84:1f:ed:25:f0:c5:f1:a6:88:14:c5:8c:49:dc:d2:2c:83:5a:
         ef:59:48:f4:8c:f8:30:97:fa:0a:06:24:fd:97:92:c8:cf:cf:
         5f:c5:8d:9f:b4:75:bc:88:da:84:94:0c:44:c0:e6:47:21:37:
         79:35:ff:9c:78:bf:55:51:af:dc:1c:35:c0:9f:06:87:f9:63:
         01:48:9d:0c:b4:f1:97:72:56:4b:37:9e:80:5d:19:f8:00:a1:
         20:81:31:3c:d4:b6:6d:5c:65:bb:cd:4b:34:04:75:d6:28:04:
         2e:db
-----BEGIN CERTIFICATE REQUEST-----
MIIBUTCBuwIBAjASMRAwDgYDVQQDDAdwZW5kaW5nMIGfMA0GCSqGSIb3DQEBAQUA
A4GNADCBiQKBgQDaWpT9d0hR+iseuzgyF3FdkzJbZ/oYU9JMhuoa7Hzr/WSl1ASI
bZKMX4qKArXGjsnkoCYcfWLgGzdG3grhHXt5HJqxcd7gxzEdAKaY+24ypZu/NjBU
ehMU/i/zdacMu9iWFQXrV2OhzBsyZ8Hc3LI0eyMAcPCaXm8xf/TRzIRfJQIDAQAB
oAAwDQYJKoZIhvcNAQELBQADgYEAOdejIMsVq5eXMv9kzaxHqz7DhB/tJfDF8aaI
FMWMSdzSLINa71lI9Iz4MJf6CgYk/ZeSyM/PX8WNn7R1vIjahJQMRMDmRyE3eTX/
nHi/VVGv3Bw1wJ8Gh/ljAUidDLTxl3JWSzeegF0Z+AChIIExPNS2bVxlu81LNAR1
1igELts=
-----END CERTIFICATE REQUEST-----
