Certificate Request:
    Data:
        Version: 3 (0x2)
        Subject: CN=pending
        Subject Public Key Info:
            Public Key Algorithm: rsaEncryption
                Public-Key: (1024 bit)
                Modulus:
                    00:d0:55:12:06:5b:e3:29:a8:4a:be:c9:46:23:58:
                    19:c4:85:fd:4d:89:99:7f:26:cb:27:ff:a2:03:16:
                    ee:52:40:1d:c5:0a:bc:0c:9b:3a:3e:88:c0:18:e9:
                    21:ff:56:e2:d7:dc:f8:c6:28:4a:c4:d1:ac:ce:97:
                    c3:94:96:cf:22:04:39:11:f6:bc:54:f3:8c:cf:d3:
                    55:5b:5c:c5:95:c7:bc:6e:3f:82:c1:2b:50:57:17:
                    cb:b6:9a:8f:6d:75:34:18:db:7a:81:ce:d8:a2:22:
                    f4:2b:8b:ae:74:df:73:91:8f:06:ef:fd:da:1a:46:
                    2a:81:fb:ee:b3:49:85:f1:2f
                Exponent: 65537 (0x10001)
        Attributes:
            a0:00
    Signature Algorithm: sha256WithRSAEncryption
         32:90:f1:7d:87:04:be:43:f7:ea:f9:08:04:ca:64:a8:f4:9f:
         41:02:21:16:27:28:88:81:8d:0e:8b:19:cb:df:ff:0b:81:c1:
         a8:8e:fb:e9:62:d6:cb:37:3d:24:bd:ce:b0:d7:d8:9d:ad:08:
         d0:8a:81:44:64:14:4a:d6:9a:e2:bc:24:a3:a6:8d:e3:30:9d:
         a4:f0:5b:27:68:fb:f3:16:a4:3b:3c:6b:6c:8f:17:34:27:ac:
         cf:af:e2:43:81:83:57:71:fc:62:11:06:fa:d5:30:03:30:ea:
         09:e7:b9:d7:1f:d9:32:09:c6:2f:6d:e9:fc:64:97:4b:6b:21:
         11:e5
-----BEGIN CERTIFICATE REQUEST-----
MIIBUTCBuwIBAjASMRAwDgYDVQQDDAdwZW5kaW5nMIGfMA0GCSqGSIb3DQEBAQUA
A4GNADCBiQKBgQDQVRIGW+MpqEq+yUYjWBnEhf1NiZl/Jssn/6IDFu5SQB3FCrwM
mzo+iMAY6SH/VuLX3PjGKErE0azOl8OUls8iBDkR9rxU84zP01VbXMWVx7xuP4LB
K1BXF8u2mo9tdTQY23qBztiiIvQri65033ORjwbv/doaRiqB++6zSYXxLwIDAQAB
oAAwDQYJKoZIhvcNAQELBQADgYEAMpDxfYcEvkP36vkIBMpkqPSfQQIhFicoiIGN
DosZy9//C4HBqI776WLWyzc9JL3OsNfYna0I0IqBRGQUStaa4rwko6aN4zCdpPBb
J2j78xakOzxrbI8XNCesz6/iQ4GDV3H8YhEG+tUwAzDqCee51x/ZMgnGL23p/GSX
S2shEeU=
-----END CERTIFICATE REQUEST-----
