Certificate Request:
    Data:
        Version: 3 (0x2)
        Subject: CN=pending
        Subject Public Key Info:
            Public Key Algorithm: rsaEncryption
                Public-Key: (1024 bit)
                Modulus:
                    00:9a:61:a1:62:58:9d:04:2e:8a:53:d0:68:7a:00:
                    96:1b:2c:9b:ba:b6:d5:78:69:9f:63:51:2e:65:20:
                    bb:de:34:32:03:83:81:63:3e:5f:54:14:c1:64:66:
                    73:22:13:e0:6c:c7:4c:07:df:46:7a:cd:71:d6:4a:
                    1d:28:97:72:10:00:42:d9:3a:5e:73:ab:92:d6:e4:
                    30:59:14:89:4b:8a:58:8c:0d:ba:1e:7a:b5:fd:c5:
                    31:b2:2f:c8:37:e6:47:05:23:7a:71:db:f0:66:7f:
                    cc:0a:a8:1e:26:ca:80:2d:8c:a1:e3:af:4a:49:61:
                    8f:94:99:70:48:9b:06:26:bd
                Exponent: 65537 (0x10001)
        Attributes:
            a0:00
    Signature Algorithm: sha256WithRSAEncryption
         21:02:1f:71:ac:e2:45:85:f7:87:b0:ee:e9:3b:c9:86:21:a7:
         6e:2c:bd:3b:ee:69:8f:c2:97:bd:25:83:84:b0:92:58:a7:b0:
         b5:a5:35:3e:bf:55:3e:d4:6f:28:4f:3f:1f:97:a7:f1:da:c0:
         11:ab:85:16:cf:27:77:8e:2b:9a:de:6e:96:7c:de:49:87:e8:
         53:14:b8:9d:c4:b8:a0:92:7f:ef:22:16:62:a5:39:72:2d:2a:
         e7:8f:0b:31:46:62:d5:ed:7c:fb:a5:3a:5a:75:84:3c:ec:6d:
         66:53:36:13:78:a6:71:f2:cc:fa:1c:35:5d:56:89:0e:8e:be:
         dd:19
-----BEGIN CERTIFICATE REQUEST-----
MIIBUTCBuwIBAjASMRAwDgYDVQQDDAdwZW5kaW5nMIGfMA0GCSqGSIb3DQEBAQUA
A4GNADCBiQKBgQCaYaFiWJ0ELopT0Gh6AJYbLJu6ttV4aZ9jUS5lILveNDIDg4Fj
Pl9UFMFkZnMiE+Bsx0wH30Z6zXHWSh0ol3IQAELZOl5zq5LW5DBZFIlLiliMDboe
erX9xTGyL8g35kcFI3px2/Bmf8wKqB4myoAtjKHjr0pJYY+UmXBImwYmvQIDAQAB
oAAwDQYJKoZIhvcNAQELBQADgYEAIQIfcaziRYX3h7Du6TvJhiGnbiy9O+5pj8KX
vSWDhLCSWKewtaU1Pr9VPtRvKE8/H5en8drAEauFFs8nd44rmt5ulnzeSYfoUxS4
ncS4oJJ/7yIWYqU5ci0q548LMUZi1e18+6U6WnWEPOxtZlM2E3imcfLM+hw1XVaJ
Do6+3Rk=
-----END CERTIFICATE REQUEST-----
