Certificate Request:
    Data:
        Version: 3 (0x2)
        Subject: CN=pending
        Subject Public Key Info:
            Public Key Algorithm: rsaEncryption
                RSA Public-Key: (2048 bit)
                Modulus:
                    00:c2:a5:41:96:ca:af:a4:6e:84:61:33:30:0c:87:
                    17:ae:a9:35:16:d0:4a:db:c1:23:e0:33:1d:2d:d6:
                    76:d0:f6:79:d3:69:6e:2c:5a:c0:04:c8:27:e0:75:
                    86:03:43:61:61:71:33:1a:9f:30:c5:77:78:10:2c:
                    93:95:dc:4b:b0:14:19:78:63:f0:de:cd:5a:20:fe:
                    7f:8e:96:60:ab:94:5a:df:26:fb:d2:34:d4:73:7a:
                    ca:bf:73:bb:e4:60:ac:15:dc:f7:37:40:cb:4c:ad:
                    d2:4c:f7:5f:ee:dd:b4:c4:cb:91:6d:5d:7d:18:ca:
                    99:85:4e:bd:55:6f:f4:de:61:d1:ee:45:63:21:22:
                    00:7e:8b:85:18:35:09:02:f0:61:58:af:e0:cc:21:
                    0f:cd:c8:10:df:e9:2f:b7:f1:b9:2b:88:da:9a:90:
                    91:ea:bc:55:cd:d6:42:90:fe:06:9a:0d:c2:44:d1:
                    7c:0a:86:72:3e:d0:f4:05:62:e6:fa:e0:74:51:2b:
                    36:3e:c9:98:fa:0a:be:5f:ac:c7:fd:bf:4b:81:de:
                    f1:b7:c5:43:73:02:66:98:1f:89:60:48:f9:53:a4:
                    75:c9:68:ab:00:3d:e9:4d:2c:84:9f:a7:a5:71:14:
                    89:fb:f5:d9:fa:0a:7e:9e:c8:b4:32:65:a1:05:52:
                    18:39
                Exponent: 65537 (0x10001)
        Attributes:
            a0:00
    Signature Algorithm: sha256WithRSAEncryption
         2c:83:d0:c6:69:03:58:68:79:15:b8:ad:5a:ba:d5:c6:05:d1:
         6a:f0:e3:48:c4:c0:6d:ce:d1:a7:b6:4a:61:b8:56:de:e5:98:
         a2:32:56:88:cc:a5:2a:7e:8e:22:0c:c5:27:b6:20:78:68:98:
         00:56:48:5f:54:9c:c4:a5:4c:79:26:72:81:20:c6:c1:ad:80:
         b8:80:0e:27:0a:ec:ae:57:1d:33:bf:8c:4f:1b:d5:86:d2:8d:
         32:9a:c5:e2:37:f6:24:86:fa:1d:e0:8e:80:e4:99:e3:27:32:
         4f:94:4c:b2:4d:28:5e:86:37:02:1c:b6:b3:86:7e:fd:10:63:
         88:eb:fc:24:60:be:cb:6f:ff:9a:95:5a:1f:fd:de:bb:1e:1e:
         ab:da:56:36:40:1a:3a:4b:08:79:74:eb:16:b8:b1:f9:5a:92:
         25:f0:60:78:39:53:86:9e:a7:cc:81:70:17:50:4f:28:fa:d2:
         b9:69:aa:a2:44:e6:6d:3c:9c:bf:6b:d2:00:fd:56:f9:3b:f0:
         8e:83:12:2a:bc:c9:12:13:1c:81:f8:03:03:05:9a:24:6d:e0:
         cc:b7:20:9e:d2:01:21:24:4d:71:09:f6:5e:28:9e:11:6b:21:
         78:ea:01:2d:f0:27:f4:ce:f4:7d:43:cc:91:49:78:d1:37:e4:
         48:74:32:ef
-----BEGIN CERTIFICATE REQUEST-----
MIICVzCCAT8CAQIwEjEQMA4GA1UEAwwHcGVuZGluZzCCASIwDQYJKoZIhvcNAQEB
BQADggEPADCCAQoCggEBAMKlQZbKr6RuhGEzMAyHF66pNRbQStvBI+AzHS3WdtD2
edNpbixawATIJ+B1hgNDYWFxMxqfMMV3eBAsk5XcS7AUGXhj8N7NWiD+f46WYKuU
Wt8m+9I01HN6yr9zu+RgrBXc9zdAy0yt0kz3X+7dtMTLkW1dfRjKmYVOvVVv9N5h
0e5FYyEiAH6LhRg1CQLwYViv4MwhD83IEN/pL7fxuSuI2pqQkeq8Vc3WQpD+BpoN
wkTRfAqGcj7Q9AVi5vrgdFErNj7JmPoKvl+sx/2/S4He8bfFQ3MCZpgfiWBI+VOk
dcloqwA96U0shJ+npXEUifv12foKfp7ItDJloQVSGDkCAwEAAaAAMA0GCSqGSIb3
DQEBCwUAA4IBAQAsg9DGaQNYaHkVuK1autXGBdFq8ONIxMBtztGntkphuFbe5Zii
MlaIzKUqfo4iDMUntiB4aJgAVkhfVJzEpUx5JnKBIMbBrYC4gA4nCuyuVx0zv4xP
G9WG0o0ymsXiN/Ykhvod4I6A5JnjJzJPlEyyTShehjcCHLazhn79EGOI6/wkYL7L
b/+alVof/d67Hh6r2lY2QBo6Swh5dOsWuLH5WpIl8GB4OVOGnqfMgXAXUE8o+tK5
aaqiROZtPJy/a9IA/Vb5O/COgxIqvMkSExyB+AMDBZokbeDMtyCe0gEhJE1xCfZe
KJ4RayF46gEt8Cf0zvR9Q8yRSXjRN+RIdDLv
-----END CERTIFICATE REQUEST-----
