Certificate:
    Data:
        Version: 3 (0x2)
        Serial Number: 8 (0x8)
        Signature Algorithm: sha256WithRSAEncryption
        Issuer: CN=Test CA Subauthority
        Validity
            Not Before: Jan  1 00:00:00 1970 GMT
            Not After : Jun 24 21:18:00 2033 GMT
        Subject: CN=revoked
        Subject Public Key Info:
            Public Key Algorithm: rsaEncryption
                Public-Key: (2048 bit)
                Modulus:
                    00:98:44:c4:15:34:87:c3:40:f4:b0:e6:2b:71:98:
                    b1:cc:de:56:ef:8c:51:49:35:17:0b:15:09:e9:ad:
                    45:2c:f0:c3:0e:20:99:6e:46:92:53:7f:cd:ec:fe:
                    62:60:1e:6f:7e:3e:f7:cf:cf:e0:de:ed:67:d9:f9:
                    0b:59:d8:c8:b5:8c:55:68:e3:2a:d4:bc:6b:73:38:
                    42:23:41:45:05:fa:ca:94:e7:98:d6:47:67:75:16:
                    6b:51:46:e5:66:f1:b4:e1:fe:18:07:ad:e6:3d:e0:
                    f0:6b:c9:0e:87:2e:12:27:7c:c1:35:cd:99:fa:8d:
                    dc:80:05:85:0a:2e:9f:9d:c0:87:76:7e:c8:aa:94:
                    2a:c3:91:07:67:25:7f:b2:b1:dc:e1:92:9b:db:20:
                    3e:75:05:36:a6:d0:a5:8f:54:4c:45:f6:c9:5c:15:
                    16:e9:fb:a4:a4:a7:47:a3:1b:9b:18:08:11:80:fd:
                    62:c3:6f:43:f7:a8:6c:f8:1a:9c:4b:8f:fe:64:2d:
                    27:9c:c5:11:e4:de:ea:7d:39:aa:62:d5:09:4d:c2:
                    fd:7a:d8:18:85:e9:07:de:4b:ac:b7:03:ff:6d:ca:
                    d7:96:2c:33:4d:cd:a9:0a:c1:7b:4a:d1:5c:07:90:
                    b2:ff:d6:48:54:2e:97:00:13:22:93:c5:6b:77:ab:
                    89:d5
                Exponent: 65537 (0x10001)
    Signature Algorithm: sha256WithRSAEncryption
    Signature Value:
        9b:26:09:f6:c7:a3:a7:35:2f:b2:55:db:8d:84:91:2a:5c:9b:
        74:30:84:d3:36:a1:e0:2e:2f:e4:46:be:85:08:67:08:3c:6f:
        63:06:e9:e3:60:2c:b6:26:86:37:81:56:6a:5c:d3:3a:79:f0:
        d7:98:cb:07:e8:ef:14:35:e6:d2:42:ba:97:2d:76:38:3a:e1:
        63:59:ee:c5:8e:f6:bf:57:88:9e:e9:03:c9:a2:cc:70:b9:1b:
        ea:74:2d:5d:64:8d:63:3b:ed:26:ce:c6:7a:f9:37:8b:09:e2:
        7a:e9:c2:17:c5:8d:7a:99:e4:19:4e:87:8f:62:ac:d8:e1:a7:
        28:9d:1d:ec:e7:4b:26:97:a1:c2:82:d5:26:81:00:ee:34:26:
        21:fe:58:8e:78:04:c6:a1:77:08:32:cc:f3:cf:5a:19:fe:6c:
        5d:2d:92:b5:7c:fa:41:0e:73:23:9c:70:28:9d:d5:e6:7e:9b:
        df:fe:bf:09:ac:86:81:ea:42:b0:12:a9:d8:a1:c7:65:74:7d:
        d3:0e:bb:dd:5a:7e:84:6f:8e:24:6c:27:a7:c3:ad:ee:c5:c8:
        cd:ef:df:29:01:4f:e0:75:af:e1:3c:0c:19:a6:5f:e3:7f:6f:
        53:15:cc:ca:d9:11:6e:96:ee:97:0e:16:33:e9:a8:9d:db:c1:
        d0:a3:d8:d6
-----BEGIN CERTIFICATE-----
MIICqjCCAZKgAwIBAgIBCDANBgkqhkiG9w0BAQsFADAfMR0wGwYDVQQDDBRUZXN0
IENBIFN1YmF1dGhvcml0eTAeFw03MDAxMDEwMDAwMDBaFw0zMzA2MjQyMTE4MDBa
MBIxEDAOBgNVBAMMB3Jldm9rZWQwggEiMA0GCSqGSIb3DQEBAQUAA4IBDwAwggEK
AoIBAQCYRMQVNIfDQPSw5itxmLHM3lbvjFFJNRcLFQnprUUs8MMOIJluRpJTf83s
/mJgHm9+PvfPz+De7WfZ+QtZ2Mi1jFVo4yrUvGtzOEIjQUUF+sqU55jWR2d1FmtR
RuVm8bTh/hgHreY94PBryQ6HLhInfME1zZn6jdyABYUKLp+dwId2fsiqlCrDkQdn
JX+ysdzhkpvbID51BTam0KWPVExF9slcFRbp+6Skp0ejG5sYCBGA/WLDb0P3qGz4
GpxLj/5kLSecxRHk3up9Oapi1QlNwv162BiF6QfeS6y3A/9tyteWLDNNzakKwXtK
0VwHkLL/1khULpcAEyKTxWt3q4nVAgMBAAEwDQYJKoZIhvcNAQELBQADggEBAJsm
CfbHo6c1L7JV242EkSpcm3QwhNM2oeAuL+RGvoUIZwg8b2MG6eNgLLYmhjeBVmpc
0zp58NeYywfo7xQ15tJCupctdjg64WNZ7sWO9r9XiJ7pA8mizHC5G+p0LV1kjWM7
7SbOxnr5N4sJ4nrpwhfFjXqZ5BlOh49irNjhpyidHeznSyaXocKC1SaBAO40JiH+
WI54BMahdwgyzPPPWhn+bF0tkrV8+kEOcyOccCid1eZ+m9/+vwmshoHqQrASqdih
x2V0fdMOu91afoRvjiRsJ6fDre7FyM3v3ykBT+B1r+E8DBmmX+N/b1MVzMrZEW6W
7pcOFjPpqJ3bwdCj2NY=
-----END CERTIFICATE-----
