Certificate:
    Data:
        Version: 3 (0x2)
        Serial Number: 4 (0x4)
    Signature Algorithm: sha256WithRSAEncryption
        Issuer: CN=Test CA Subauthority
        Validity
            Not Before: Jan  1 00:00:00 1970 GMT
            Not After : Apr 19 22:31:22 2029 GMT
        Subject: CN=revoked
        Subject Public Key Info:
            Public Key Algorithm: rsaEncryption
                Public-Key: (1024 bit)
                Modulus:
                    00:ac:50:a2:73:53:48:80:77:b1:93:92:2e:8e:99:
                    f7:60:ba:41:fe:ac:a8:d6:57:88:67:25:40:a2:88:
                    66:e8:d8:0a:32:68:a2:79:41:30:76:e4:31:4b:3e:
                    28:62:6b:6d:52:db:4b:61:27:a5:44:29:4f:41:43:
                    da:5a:b4:aa:37:38:19:68:50:60:3c:35:27:ef:51:
                    55:da:7d:17:01:3a:e7:96:70:e8:12:8f:6f:ee:1c:
                    43:65:fe:e6:c7:dc:a9:0d:b9:57:a7:a2:8b:dd:ed:
                    89:08:3e:59:d1:d1:3f:39:6f:95:03:c5:e6:a2:2c:
                    cd:a3:3b:82:29:9e:35:83:1d
                Exponent: 65537 (0x10001)
    Signature Algorithm: sha256WithRSAEncryption
         37:b6:44:8d:06:42:a0:9f:7f:fd:61:18:04:c4:f6:ae:f9:8a:
         14:98:63:a8:08:01:0a:7d:80:7f:4b:a5:e4:3d:27:6d:36:ef:
         6a:99:44:bb:70:c8:1f:18:64:35:47:07:34:71:c9:96:2f:e0:
         c7:fe:61:ce:71:2b:20:1b:2f:11:92:e3:37:51:03:f2:71:2a:
         53:2f:94:11:41:2e:48:45:15:0a:95:71:d2:49:03:38:8e:6f:
         ab:dd:7b:e8:77:82:4c:29:29:e8:41:4d:c9:3b:ec:08:d0:2e:
         42:6a:26:bc:d3:a9:e8:ce:fd:5e:f4:4f:b9:ea:60:72:01:04:
         d6:66
-----BEGIN CERTIFICATE-----
MIIBpTCCAQ6gAwIBAgIBBDANBgkqhkiG9w0BAQsFADAfMR0wGwYDVQQDDBRUZXN0
IENBIFN1YmF1dGhvcml0eTAeFw03MDAxMDEwMDAwMDBaFw0yOTA0MTkyMjMxMjJa
MBIxEDAOBgNVBAMMB3Jldm9rZWQwgZ8wDQYJKoZIhvcNAQEBBQADgY0AMIGJAoGB
AKxQonNTSIB3sZOSLo6Z92C6Qf6sqNZXiGclQKKIZujYCjJoonlBMHbkMUs+KGJr
bVLbS2EnpUQpT0FD2lq0qjc4GWhQYDw1J+9RVdp9FwE655Zw6BKPb+4cQ2X+5sfc
qQ25V6eii93tiQg+WdHRPzlvlQPF5qIszaM7gimeNYMdAgMBAAEwDQYJKoZIhvcN
AQELBQADgYEAN7ZEjQZCoJ9//WEYBMT2rvmKFJhjqAgBCn2Af0ul5D0nbTbvaplE
u3DIHxhkNUcHNHHJli/gx/5hznErIBsvEZLjN1ED8nEqUy+UEUEuSEUVCpVx0kkD
OI5vq9176HeCTCkp6EFNyTvsCNAuQmomvNOp6M79XvRPuepgcgEE1mY=
-----END CERTIFICATE-----
