Certificate:
    Data:
        Version: 3 (0x2)
        Serial Number: 4 (0x4)
    Signature Algorithm: sha256WithRSAEncryption
        Issuer: CN=Test CA Subauthority
        Validity
            Not Before: Jan  1 00:00:00 1970 GMT
            Not After : Mar  3 20:26:24 2029 GMT
        Subject: CN=revoked
        Subject Public Key Info:
            Public Key Algorithm: rsaEncryption
                Public-Key: (1024 bit)
                Modulus:
                    00:fd:2a:69:c6:43:ba:c8:b6:3f:7d:46:90:e2:4d:
                    0c:36:9a:1b:26:07:0c:2b:2f:40:a4:74:21:39:21:
                    c5:11:66:01:9d:80:7e:85:61:6d:bd:4b:23:d9:ac:
                    de:65:3b:94:44:d3:23:46:c0:2c:a4:fe:d2:b6:97:
                    f3:be:1a:14:52:bc:d8:da:7a:18:30:fb:f4:39:a6:
                    5d:da:7b:8e:9e:9a:b8:05:cb:21:f0:62:39:bc:a1:
                    51:ad:23:b9:45:45:6d:3d:c4:5a:ee:55:5a:fa:f9:
                    5b:f6:f3:d3:c4:26:a6:65:6e:98:1e:57:e1:a7:6c:
                    a1:a6:1d:fa:aa:7a:ef:1d:cd
                Exponent: 65537 (0x10001)
    Signature Algorithm: sha256WithRSAEncryption
         55:ef:5d:2e:cb:40:25:9a:c3:9f:54:5e:db:76:42:09:6a:47:
         f9:4c:7d:e6:10:38:a1:dc:71:b0:fd:20:03:c0:49:0b:0e:10:
         9e:c9:8b:80:4f:6e:af:51:0c:80:7a:91:b5:77:bc:96:56:f5:
         bd:d4:a3:4c:37:67:1f:70:93:39:b1:bb:87:79:4e:78:0d:8a:
         ab:d6:41:61:80:f7:8a:5f:1d:83:cd:ef:b2:cf:50:9f:72:f7:
         da:a7:55:9d:ea:65:c1:53:02:a1:78:f9:66:0e:a3:e1:1d:bc:
         d0:ae:f9:5c:4a:e4:92:9c:85:57:bc:1c:d1:15:4c:31:8d:25:
         a7:f2
-----BEGIN CERTIFICATE-----
MIIBpTCCAQ6gAwIBAgIBBDANBgkqhkiG9w0BAQsFADAfMR0wGwYDVQQDDBRUZXN0
IENBIFN1YmF1dGhvcml0eTAeFw03MDAxMDEwMDAwMDBaFw0yOTAzMDMyMDI2MjRa
MBIxEDAOBgNVBAMMB3Jldm9rZWQwgZ8wDQYJKoZIhvcNAQEBBQADgY0AMIGJAoGB
AP0qacZDusi2P31GkOJNDDaaGyYHDCsvQKR0ITkhxRFmAZ2AfoVhbb1LI9ms3mU7
lETTI0bALKT+0raX874aFFK82Np6GDD79DmmXdp7jp6auAXLIfBiObyhUa0juUVF
bT3EWu5VWvr5W/bz08QmpmVumB5X4adsoaYd+qp67x3NAgMBAAEwDQYJKoZIhvcN
AQELBQADgYEAVe9dLstAJZrDn1Re23ZCCWpH+Ux95hA4odxxsP0gA8BJCw4QnsmL
gE9ur1EMgHqRtXe8llb1vdSjTDdnH3CTObG7h3lOeA2Kq9ZBYYD3il8dg83vss9Q
n3L32qdVneplwVMCoXj5Zg6j4R280K75XErkkpyFV7wc0RVMMY0lp/I=
-----END CERTIFICATE-----
