Certificate:
    Data:
        Version: 3 (0x2)
        Serial Number: 8 (0x8)
        Signature Algorithm: sha256WithRSAEncryption
        Issuer: CN=Test CA Subauthority
        Validity
            Not Before: Jan  1 00:00:00 1970 GMT
            Not After : Jan 27 18:43:32 2034 GMT
        Subject: CN=revoked
        Subject Public Key Info:
            Public Key Algorithm: rsaEncryption
                RSA Public-Key: (2048 bit)
                Modulus:
                    00:c1:5b:fe:c1:98:52:de:3b:2b:71:ea:52:c9:4b:
                    07:f6:4e:d1:72:1f:5e:cc:cd:41:0b:2b:c7:aa:68:
                    05:56:0b:c3:42:66:ac:ee:d6:5a:3e:35:bb:b8:85:
                    27:ba:79:1b:97:b8:8c:b7:c7:64:96:de:7b:b8:78:
                    c1:56:5e:84:f8:9d:4a:a3:81:b4:d9:7d:ba:35:ee:
                    47:74:40:a4:47:a7:83:6c:af:9c:63:41:fa:8e:0e:
                    01:1d:92:b1:94:a9:ff:57:44:61:e9:3d:74:74:dd:
                    be:0b:73:f6:24:b7:92:f1:d3:35:34:a7:75:88:58:
                    7d:8b:5c:fb:39:f2:25:c4:fb:f2:39:8f:b6:85:a1:
                    38:7a:20:b8:8d:0d:68:c7:7f:48:1b:19:00:7a:f2:
                    71:ae:ef:b8:c7:6f:d5:0b:ff:ea:3b:7f:be:35:45:
                    ff:ae:3c:78:13:57:bf:ec:3c:cf:cc:26:9b:31:70:
                    8c:a9:c3:34:a0:49:99:d6:4c:db:30:8b:a0:b9:44:
                    15:49:3a:e6:51:f2:cd:26:c5:f1:b8:df:3f:70:20:
                    f5:52:ec:e2:f3:67:fc:86:f5:dd:31:a3:e9:70:ef:
                    35:0c:24:91:7d:20:06:d1:64:28:9e:80:23:c4:95:
                    06:b3:5b:25:3d:51:52:95:ad:29:c2:cd:34:40:b2:
                    96:b5
                Exponent: 65537 (0x10001)
    Signature Algorithm: sha256WithRSAEncryption
         6e:a8:0b:21:b3:f4:24:38:6e:9d:95:c5:cb:79:4e:7a:7a:43:
         47:ab:d7:ff:b3:ff:2d:09:6f:b2:52:6c:c1:79:db:ab:78:06:
         57:56:9b:57:a8:8d:1e:a4:18:6f:62:78:63:cd:f1:0a:40:2f:
         46:bd:c1:2f:5e:cc:07:cc:52:70:f9:fa:45:d3:6a:7a:d3:59:
         51:53:89:f1:cd:98:32:94:33:6b:e6:77:ac:f6:4f:e9:97:e0:
         79:0e:7a:8e:45:86:8b:43:9f:04:3b:b1:ac:05:b1:da:2d:7b:
         3f:f8:d6:44:a7:87:6b:17:36:d7:f4:f9:c6:ea:3b:cf:0c:30:
         de:99:be:e4:8f:44:dd:06:29:28:bf:06:91:a4:94:8b:0a:97:
         d4:70:1b:19:7e:c1:98:6d:b7:82:b5:55:da:01:7f:71:73:24:
         05:5e:18:3b:48:38:44:53:99:06:c5:29:56:2c:ec:c5:62:ab:
         2e:bc:16:a6:57:ee:e5:a2:04:74:2d:ee:64:75:8b:ce:8f:e2:
         47:7b:78:4e:a6:fe:cd:5b:5c:ab:b3:c5:52:39:29:65:9b:49:
         22:3f:4b:47:91:61:e9:34:c3:00:b8:bf:9c:b4:f4:66:d0:3c:
         e5:91:3a:16:4f:e5:70:fe:d2:7a:f7:14:e4:f5:f1:34:32:e8:
         b5:a4:e7:d9
-----BEGIN CERTIFICATE-----
MIICqjCCAZKgAwIBAgIBCDANBgkqhkiG9w0BAQsFADAfMR0wGwYDVQQDDBRUZXN0
IENBIFN1YmF1dGhvcml0eTAeFw03MDAxMDEwMDAwMDBaFw0zNDAxMjcxODQzMzJa
MBIxEDAOBgNVBAMMB3Jldm9rZWQwggEiMA0GCSqGSIb3DQEBAQUAA4IBDwAwggEK
AoIBAQDBW/7BmFLeOytx6lLJSwf2TtFyH17MzUELK8eqaAVWC8NCZqzu1lo+Nbu4
hSe6eRuXuIy3x2SW3nu4eMFWXoT4nUqjgbTZfbo17kd0QKRHp4Nsr5xjQfqODgEd
krGUqf9XRGHpPXR03b4Lc/Ykt5Lx0zU0p3WIWH2LXPs58iXE+/I5j7aFoTh6ILiN
DWjHf0gbGQB68nGu77jHb9UL/+o7f741Rf+uPHgTV7/sPM/MJpsxcIypwzSgSZnW
TNswi6C5RBVJOuZR8s0mxfG43z9wIPVS7OLzZ/yG9d0xo+lw7zUMJJF9IAbRZCie
gCPElQazWyU9UVKVrSnCzTRAspa1AgMBAAEwDQYJKoZIhvcNAQELBQADggEBAG6o
CyGz9CQ4bp2Vxct5Tnp6Q0er1/+z/y0Jb7JSbMF526t4BldWm1eojR6kGG9ieGPN
8QpAL0a9wS9ezAfMUnD5+kXTanrTWVFTifHNmDKUM2vmd6z2T+mX4HkOeo5FhotD
nwQ7sawFsdotez/41kSnh2sXNtf0+cbqO88MMN6ZvuSPRN0GKSi/BpGklIsKl9Rw
Gxl+wZhtt4K1VdoBf3FzJAVeGDtIOERTmQbFKVYs7MViqy68FqZX7uWiBHQt7mR1
i86P4kd7eE6m/s1bXKuzxVI5KWWbSSI/S0eRYek0wwC4v5y09GbQPOWROhZP5XD+
0nr3FOT18TQy6LWk59k=
-----END CERTIFICATE-----
