Certificate:
    Data:
        Version: 3 (0x2)
        Serial Number: 7 (0x7)
        Signature Algorithm: sha256WithRSAEncryption
        Issuer: CN=Test CA Subauthority
        Validity
            Not Before: Jan  1 00:00:00 1970 GMT
            Not After : Jun 15 01:19:37 2031 GMT
        Subject: CN=revoked
        Subject Public Key Info:
            Public Key Algorithm: rsaEncryption
                RSA Public-Key: (2048 bit)
                Modulus:
                    00:dd:c1:e0:87:23:e8:91:3c:90:ab:fe:9c:ac:69:
                    08:e1:7d:ba:10:ac:b7:7d:eb:47:ae:25:ff:6d:ab:
                    f4:d2:47:2f:bd:16:c9:21:09:e2:1e:e1:9a:aa:24:
                    0c:7a:8e:f9:bf:72:56:0d:b7:f8:0e:b6:5b:01:d1:
                    96:3d:e4:41:d9:71:57:d3:34:d9:85:c2:86:ef:29:
                    54:7d:f7:6a:3a:90:9c:00:f4:4e:77:2e:e1:32:2f:
                    c5:14:8e:ab:db:ec:36:ec:b1:aa:12:b6:27:76:e3:
                    df:88:08:40:e5:4e:6b:fa:20:dd:28:68:21:50:fd:
                    1c:a0:10:53:39:21:96:81:88:cd:4b:9a:e6:b1:d1:
                    3c:29:30:0e:ed:d8:e7:c6:29:c7:72:2c:f8:51:fe:
                    ce:1f:72:65:0d:03:a3:ab:5e:ba:90:3f:09:f7:df:
                    f5:37:e4:4d:d6:4d:2d:28:6a:d5:e2:c6:9d:7b:41:
                    f8:b7:5f:44:3e:27:61:ad:ac:9d:60:5b:02:b2:ff:
                    76:6b:83:75:e6:64:8d:ee:3e:68:17:0e:b9:18:c6:
                    47:e0:ca:77:9a:e2:6e:6e:71:64:7f:a2:fa:fb:33:
                    74:42:8f:8d:c1:43:69:4d:6e:a3:96:57:26:54:7d:
                    52:45:d8:6b:7e:5d:4a:20:f1:89:a5:70:a7:3c:2e:
                    98:25
                Exponent: 65537 (0x10001)
    Signature Algorithm: sha256WithRSAEncryption
         45:2e:85:90:41:98:ce:10:47:80:a0:94:f7:54:cc:d0:92:03:
         77:6d:e8:e4:0c:da:8c:a1:50:c4:7a:02:24:5f:96:aa:5b:e5:
         8e:1f:a1:e6:31:8f:eb:d9:98:c0:a3:25:93:c0:0d:cd:ea:02:
         17:65:cf:10:bd:31:34:09:bd:eb:98:09:d4:09:68:94:41:df:
         69:4f:a8:cc:f5:b2:3a:c8:22:9c:24:2a:24:6f:64:65:c6:85:
         f3:3b:65:14:b6:14:ca:17:56:9e:71:9f:9c:13:6a:8b:e5:37:
         15:f1:53:93:89:2f:17:0c:49:d7:76:a5:a9:5d:e3:6f:09:b2:
         8d:59:1b:3c:17:7d:e8:29:bc:bf:27:1b:eb:20:7e:38:b0:ce:
         55:5a:e3:47:08:1e:66:d5:aa:f6:50:10:c9:33:0d:0d:41:79:
         14:f4:95:2f:81:be:84:37:88:5a:d5:08:3a:a5:e8:79:0b:e3:
         e0:24:68:b0:b3:5d:95:3e:a5:4c:a9:7a:f5:d1:3c:cb:2b:a0:
         85:19:b2:6d:8f:11:5f:09:d7:10:51:fb:70:64:b2:79:29:b5:
         56:21:a0:1d:04:5f:94:02:40:98:b7:43:d9:21:7a:5c:b2:9b:
         50:37:58:bf:76:e8:d4:c5:13:f4:b2:a3:4b:e7:b6:3f:91:a6:
         a8:ab:6c:07
-----BEGIN CERTIFICATE-----
MIICqjCCAZKgAwIBAgIBBzANBgkqhkiG9w0BAQsFADAfMR0wGwYDVQQDDBRUZXN0
IENBIFN1YmF1dGhvcml0eTAeFw03MDAxMDEwMDAwMDBaFw0zMTA2MTUwMTE5Mzda
MBIxEDAOBgNVBAMMB3Jldm9rZWQwggEiMA0GCSqGSIb3DQEBAQUAA4IBDwAwggEK
AoIBAQDdweCHI+iRPJCr/pysaQjhfboQrLd960euJf9tq/TSRy+9FskhCeIe4Zqq
JAx6jvm/clYNt/gOtlsB0ZY95EHZcVfTNNmFwobvKVR992o6kJwA9E53LuEyL8UU
jqvb7DbssaoStid249+ICEDlTmv6IN0oaCFQ/RygEFM5IZaBiM1Lmuax0TwpMA7t
2OfGKcdyLPhR/s4fcmUNA6OrXrqQPwn33/U35E3WTS0oatXixp17Qfi3X0Q+J2Gt
rJ1gWwKy/3Zrg3XmZI3uPmgXDrkYxkfgynea4m5ucWR/ovr7M3RCj43BQ2lNbqOW
VyZUfVJF2Gt+XUog8YmlcKc8LpglAgMBAAEwDQYJKoZIhvcNAQELBQADggEBAEUu
hZBBmM4QR4CglPdUzNCSA3dt6OQM2oyhUMR6AiRflqpb5Y4foeYxj+vZmMCjJZPA
Dc3qAhdlzxC9MTQJveuYCdQJaJRB32lPqMz1sjrIIpwkKiRvZGXGhfM7ZRS2FMoX
Vp5xn5wTaovlNxXxU5OJLxcMSdd2pald428Jso1ZGzwXfegpvL8nG+sgfjiwzlVa
40cIHmbVqvZQEMkzDQ1BeRT0lS+BvoQ3iFrVCDql6HkL4+AkaLCzXZU+pUypevXR
PMsroIUZsm2PEV8J1xBR+3BksnkptVYhoB0EX5QCQJi3Q9khelyym1A3WL926NTF
E/Syo0vntj+RpqirbAc=
-----END CERTIFICATE-----
