Certificate:
    Data:
        Version: 3 (0x2)
        Serial Number: 4 (0x4)
    Signature Algorithm: sha256WithRSAEncryption
        Issuer: CN=Test CA Subauthority
        Validity
            Not Before: Jan  1 00:00:00 1970 GMT
            Not After : Mar  9 21:35:53 2029 GMT
        Subject: CN=revoked
        Subject Public Key Info:
            Public Key Algorithm: rsaEncryption
                Public-Key: (1024 bit)
                Modulus:
                    00:df:01:71:af:01:5d:b1:b6:af:81:20:06:b1:22:
                    74:12:ec:20:f6:c8:12:0f:13:ed:a4:0e:17:af:00:
                    89:7c:53:a1:5d:b7:d7:d5:3a:c0:ab:1b:2a:6d:44:
                    ea:8c:91:44:75:5e:19:4f:bd:2f:67:86:ed:78:1d:
                    67:a5:54:e3:fb:29:7d:03:2a:3a:15:59:3f:0f:8f:
                    7d:db:42:28:77:48:ae:fb:2d:8f:7c:97:31:ca:7e:
                    a4:a0:56:3c:15:73:c8:8e:45:0a:5b:16:4b:4e:d7:
                    5e:f5:75:86:dd:aa:b6:69:ed:05:98:7c:ed:94:2f:
                    05:e2:ca:33:7d:c2:e6:9b:47
                Exponent: 65537 (0x10001)
    Signature Algorithm: sha256WithRSAEncryption
         4f:24:56:32:a9:45:7b:f2:f2:2c:29:31:ff:03:e6:da:c9:ed:
         37:87:18:a0:b3:ff:ad:42:82:01:1a:d2:03:09:60:2d:b9:fe:
         81:46:f7:40:90:d4:d6:17:79:93:f4:32:2a:9e:7b:29:8a:97:
         82:d8:55:d8:39:84:6b:d0:da:65:39:de:28:09:33:83:8b:fa:
         e2:f2:76:5f:fb:30:72:a7:28:b2:20:48:15:da:3e:87:0d:6a:
         74:1a:c2:55:12:07:7a:2e:30:ec:e6:a6:96:78:34:1b:7d:94:
         7b:67:54:5c:ca:06:98:e3:fb:c7:7f:48:ab:a3:e0:e5:87:2c:
         c5:fc
-----BEGIN CERTIFICATE-----
MIIBpTCCAQ6gAwIBAgIBBDANBgkqhkiG9w0BAQsFADAfMR0wGwYDVQQDDBRUZXN0
IENBIFN1YmF1dGhvcml0eTAeFw03MDAxMDEwMDAwMDBaFw0yOTAzMDkyMTM1NTNa
MBIxEDAOBgNVBAMMB3Jldm9rZWQwgZ8wDQYJKoZIhvcNAQEBBQADgY0AMIGJAoGB
AN8Bca8BXbG2r4EgBrEidBLsIPbIEg8T7aQOF68AiXxToV2319U6wKsbKm1E6oyR
RHVeGU+9L2eG7XgdZ6VU4/spfQMqOhVZPw+PfdtCKHdIrvstj3yXMcp+pKBWPBVz
yI5FClsWS07XXvV1ht2qtmntBZh87ZQvBeLKM33C5ptHAgMBAAEwDQYJKoZIhvcN
AQELBQADgYEATyRWMqlFe/LyLCkx/wPm2sntN4cYoLP/rUKCARrSAwlgLbn+gUb3
QJDU1hd5k/QyKp57KYqXgthV2DmEa9DaZTneKAkzg4v64vJ2X/swcqcosiBIFdo+
hw1qdBrCVRIHei4w7Oamlng0G32Ue2dUXMoGmOP7x39Iq6Pg5Ycsxfw=
-----END CERTIFICATE-----
