Certificate:
    Data:
        Version: 3 (0x2)
        Serial Number: 6 (0x6)
        Signature Algorithm: sha256WithRSAEncryption
        Issuer: CN=Test CA Subauthority
        Validity
            Not Before: Jan  1 00:00:00 1970 GMT
            Not After : Apr 18 18:46:23 2031 GMT
        Subject: CN=revoked
        Subject Public Key Info:
            Public Key Algorithm: rsaEncryption
                RSA Public-Key: (2048 bit)
                Modulus:
                    00:d6:7b:d8:19:56:82:ff:86:58:15:2b:40:db:c9:
                    88:55:c4:af:51:81:f9:89:e4:8b:fa:93:42:98:63:
                    74:9c:ed:71:4a:16:1c:ef:95:2e:89:dc:28:83:91:
                    d1:f7:31:66:a8:9c:7d:7b:0c:dc:62:9f:97:84:13:
                    a7:35:ab:c3:8f:41:4b:d1:0c:13:fe:f4:17:83:ae:
                    00:28:6c:c6:d9:46:1c:4f:8d:ba:40:ab:52:8a:bc:
                    47:53:41:9d:ea:4d:eb:eb:3f:c7:de:bc:3c:d8:16:
                    35:0d:16:da:45:c2:50:90:12:6a:4e:f3:f2:ff:c7:
                    b2:24:5e:18:ca:3d:ca:a2:be:e3:24:89:f9:58:70:
                    d5:d1:a7:d1:01:78:20:6a:15:ab:96:75:2c:7e:f1:
                    72:1b:3c:56:53:4e:11:d7:93:5e:44:31:59:ce:4c:
                    8a:f6:cd:61:30:16:e1:50:18:25:3c:f9:22:a9:7c:
                    fb:38:78:f1:b9:0a:45:68:9c:f7:2f:c7:f8:d6:36:
                    6c:00:34:24:f7:69:0d:38:d1:03:e9:48:79:79:01:
                    ba:63:74:f0:9e:f6:b9:74:78:b3:94:48:61:9e:26:
                    22:02:9e:f7:88:78:08:13:7e:71:75:39:b1:2d:e5:
                    6a:ed:06:e3:10:36:c0:c2:8b:3e:dd:07:4a:c5:51:
                    96:1b
                Exponent: 65537 (0x10001)
    Signature Algorithm: sha256WithRSAEncryption
         8c:38:83:61:c1:4c:2f:c0:8a:fd:0b:4b:8e:fc:fd:28:cd:5d:
         45:45:73:bb:c0:82:d1:41:4b:8c:c2:ae:62:91:dc:42:50:6b:
         bb:b0:27:4c:90:f3:91:c2:1a:46:bb:31:3c:de:e5:cc:3c:da:
         94:6c:40:86:7f:38:36:e5:a0:22:77:fc:9a:06:e7:b5:cc:35:
         70:ff:06:4e:20:38:98:9d:03:85:73:26:35:3a:7e:9d:13:89:
         94:52:10:8a:c0:c4:c0:f3:56:8e:47:88:f5:1e:c8:fc:68:e6:
         70:28:b9:0d:5b:f3:6d:3c:b4:94:2f:38:40:61:77:33:c6:f2:
         25:7d:6b:d4:0c:75:05:15:89:ed:d4:1f:55:10:80:0a:b9:71:
         20:f3:73:84:d1:a4:3c:21:1c:64:b9:cf:bd:e1:21:24:dc:cf:
         2d:7e:d8:08:d5:1e:d6:6c:7d:bb:8f:66:5d:2b:29:a8:41:52:
         e4:30:3f:43:22:a4:06:94:f5:2d:3b:3b:e5:9b:f1:24:dc:5e:
         ad:ed:fe:cc:ec:f5:99:de:4a:f2:13:de:c7:94:29:18:e4:21:
         5e:f5:21:ec:0c:dd:2f:1f:5c:c5:9c:f9:c3:72:8b:cd:63:b1:
         e3:2c:f3:04:db:73:43:ed:6e:59:f1:86:8b:f3:90:63:74:cf:
         74:80:8a:32
-----BEGIN CERTIFICATE-----
MIICqjCCAZKgAwIBAgIBBjANBgkqhkiG9w0BAQsFADAfMR0wGwYDVQQDDBRUZXN0
IENBIFN1YmF1dGhvcml0eTAeFw03MDAxMDEwMDAwMDBaFw0zMTA0MTgxODQ2MjNa
MBIxEDAOBgNVBAMMB3Jldm9rZWQwggEiMA0GCSqGSIb3DQEBAQUAA4IBDwAwggEK
AoIBAQDWe9gZVoL/hlgVK0DbyYhVxK9RgfmJ5Iv6k0KYY3Sc7XFKFhzvlS6J3CiD
kdH3MWaonH17DNxin5eEE6c1q8OPQUvRDBP+9BeDrgAobMbZRhxPjbpAq1KKvEdT
QZ3qTevrP8fevDzYFjUNFtpFwlCQEmpO8/L/x7IkXhjKPcqivuMkiflYcNXRp9EB
eCBqFauWdSx+8XIbPFZTThHXk15EMVnOTIr2zWEwFuFQGCU8+SKpfPs4ePG5CkVo
nPcvx/jWNmwANCT3aQ040QPpSHl5AbpjdPCe9rl0eLOUSGGeJiICnveIeAgTfnF1
ObEt5WrtBuMQNsDCiz7dB0rFUZYbAgMBAAEwDQYJKoZIhvcNAQELBQADggEBAIw4
g2HBTC/Aiv0LS478/SjNXUVFc7vAgtFBS4zCrmKR3EJQa7uwJ0yQ85HCGka7MTze
5cw82pRsQIZ/ODbloCJ3/JoG57XMNXD/Bk4gOJidA4VzJjU6fp0TiZRSEIrAxMDz
Vo5HiPUeyPxo5nAouQ1b8208tJQvOEBhdzPG8iV9a9QMdQUVie3UH1UQgAq5cSDz
c4TRpDwhHGS5z73hISTczy1+2AjVHtZsfbuPZl0rKahBUuQwP0MipAaU9S07O+Wb
8STcXq3t/szs9ZneSvIT3seUKRjkIV71IewM3S8fXMWc+cNyi81jseMs8wTbc0Pt
blnxhovzkGN0z3SAijI=
-----END CERTIFICATE-----
