Certificate:
    Data:
        Version: 3 (0x2)
        Serial Number: 4 (0x4)
        Signature Algorithm: sha256WithRSAEncryption
        Issuer: CN=Test CA Subauthority
        Validity
            Not Before: Jan  1 00:00:00 1970 GMT
            Not After : Jun 24 21:18:00 2033 GMT
        Subject: CN=signed
        Subject Public Key Info:
            Public Key Algorithm: rsaEncryption
                Public-Key: (2048 bit)
                Modulus:
                    00:c4:7f:b6:dd:ab:a8:58:7f:49:48:9d:bd:6f:91:
                    9a:ea:bc:8c:3c:20:5f:ec:3b:30:4e:c2:c5:98:8e:
                    52:27:74:d9:d1:28:7e:6a:09:b1:fc:ea:d2:28:a7:
                    48:30:b8:bc:93:11:e8:56:93:bf:02:86:1c:78:16:
                    0b:b8:c3:ce:aa:b1:27:de:c6:96:20:f8:d4:8e:63:
                    58:b3:05:c6:df:a7:eb:eb:85:14:98:04:0e:d7:99:
                    17:81:0c:15:0b:c7:f0:bf:14:a5:8e:e9:5b:88:65:
                    e9:b4:3e:9f:77:f4:77:60:dd:aa:75:e9:f2:75:07:
                    a8:47:17:a3:79:f1:e5:ea:01:80:25:5a:5a:1b:fb:
                    8d:6e:17:c7:b8:7d:bb:1d:ec:67:bf:c9:83:8f:28:
                    02:99:83:16:f4:2c:f0:94:25:1b:7f:f0:99:fb:ec:
                    75:63:88:97:2f:1d:f8:bf:14:92:3b:df:ed:a0:56:
                    0c:94:c6:92:b4:91:e2:85:88:de:99:93:00:17:b0:
                    f1:ed:45:03:8f:07:2e:5a:e5:82:6a:99:6f:45:00:
                    54:2a:37:93:77:23:06:c3:99:fa:c1:1f:4c:59:63:
                    e1:35:b9:f7:f6:ab:81:a5:11:ef:9c:a1:e6:64:ab:
                    2f:fc:f9:cd:b3:d0:b7:33:81:4c:36:13:03:3a:5e:
                    e6:e5
                Exponent: 65537 (0x10001)
    Signature Algorithm: sha256WithRSAEncryption
    Signature Value:
        a5:35:e3:d1:e0:28:58:6d:a9:cb:9c:34:e8:1d:4a:a6:98:bd:
        8c:25:07:56:93:bc:03:14:bd:5c:88:e7:dd:a8:84:64:6c:9f:
        7e:78:7f:b2:cb:1c:a7:c5:6d:30:3e:9b:61:88:4a:94:80:6c:
        35:09:23:0c:e2:1e:67:08:13:f6:a9:71:0c:b4:9b:38:b4:20:
        83:18:83:3c:ae:ad:31:b1:9b:2e:29:30:60:e8:7a:bb:53:41:
        cc:7c:f7:ed:e7:9f:3a:0a:18:5a:9f:01:c8:f7:27:18:11:28:
        1c:40:a2:e1:58:74:0a:13:e9:f7:67:e8:df:07:44:cf:c8:71:
        ad:90:ad:3d:7b:8a:1f:23:63:8d:c4:7f:be:d8:f1:ad:59:28:
        ab:be:f9:84:dd:3b:77:97:29:63:56:99:60:1d:1f:5c:ac:d2:
        a3:74:50:4b:04:46:ba:37:3c:a2:99:40:33:34:a4:b5:d6:a6:
        02:47:bb:2d:cb:a9:4a:a4:53:85:bc:6c:d7:7e:54:d0:d4:96:
        31:99:74:55:08:b3:15:62:c0:25:51:04:58:f9:33:24:80:fa:
        80:5e:4a:3c:d1:b5:41:00:39:20:d1:e3:c7:14:a6:fb:fc:64:
        17:be:97:aa:06:88:01:1e:0e:fd:b6:97:f8:6a:3a:0c:9c:bc:
        8f:6d:a3:9b
-----BEGIN CERTIFICATE-----
MIICqTCCAZGgAwIBAgIBBDANBgkqhkiG9w0BAQsFADAfMR0wGwYDVQQDDBRUZXN0
IENBIFN1YmF1dGhvcml0eTAeFw03MDAxMDEwMDAwMDBaFw0zMzA2MjQyMTE4MDBa
MBExDzANBgNVBAMMBnNpZ25lZDCCASIwDQYJKoZIhvcNAQEBBQADggEPADCCAQoC
ggEBAMR/tt2rqFh/SUidvW+Rmuq8jDwgX+w7ME7CxZiOUid02dEofmoJsfzq0iin
SDC4vJMR6FaTvwKGHHgWC7jDzqqxJ97GliD41I5jWLMFxt+n6+uFFJgEDteZF4EM
FQvH8L8UpY7pW4hl6bQ+n3f0d2DdqnXp8nUHqEcXo3nx5eoBgCVaWhv7jW4Xx7h9
ux3sZ7/Jg48oApmDFvQs8JQlG3/wmfvsdWOIly8d+L8Ukjvf7aBWDJTGkrSR4oWI
3pmTABew8e1FA48HLlrlgmqZb0UAVCo3k3cjBsOZ+sEfTFlj4TW59/argaUR75yh
5mSrL/z5zbPQtzOBTDYTAzpe5uUCAwEAATANBgkqhkiG9w0BAQsFAAOCAQEApTXj
0eAoWG2py5w06B1Kppi9jCUHVpO8AxS9XIjn3aiEZGyffnh/ssscp8VtMD6bYYhK
lIBsNQkjDOIeZwgT9qlxDLSbOLQggxiDPK6tMbGbLikwYOh6u1NBzHz37eefOgoY
Wp8ByPcnGBEoHECi4Vh0ChPp92fo3wdEz8hxrZCtPXuKHyNjjcR/vtjxrVkoq775
hN07d5cpY1aZYB0fXKzSo3RQSwRGujc8oplAMzSktdamAke7LcupSqRThbxs135U
0NSWMZl0VQizFWLAJVEEWPkzJID6gF5KPNG1QQA5INHjxxSm+/xkF76XqgaIAR4O
/baX+Go6DJy8j22jmw==
-----END CERTIFICATE-----
