Certificate:
    Data:
        Version: 3 (0x2)
        Serial Number: 4 (0x4)
        Signature Algorithm: sha256WithRSAEncryption
        Issuer: CN=Test CA Subauthority
        Validity
            Not Before: Jan  1 00:00:00 1970 GMT
            Not After : Jan 27 18:43:32 2034 GMT
        Subject: CN=signed
        Subject Public Key Info:
            Public Key Algorithm: rsaEncryption
                RSA Public-Key: (2048 bit)
                Modulus:
                    00:ac:0d:e2:e1:62:ee:7a:55:f6:46:0a:5f:ed:dc:
                    4a:a6:d4:d0:19:7f:a8:4d:cd:a0:c1:61:d4:e8:78:
                    50:d4:5d:40:1f:e0:c3:79:26:95:19:4c:cd:70:10:
                    53:38:b1:68:e4:7e:d4:44:65:68:94:8c:b6:ab:d2:
                    22:36:d8:b0:92:ba:ed:3f:00:ec:b0:b6:5f:26:ac:
                    f7:2b:71:e4:d7:8a:28:49:a8:fe:f9:a1:c8:b8:09:
                    73:8c:f7:d3:90:ab:ed:74:fb:25:29:bf:81:51:b3:
                    ac:02:81:ba:c1:7f:8a:ad:d7:18:6d:d0:73:1e:7f:
                    d9:54:ed:0b:a2:a6:d7:7e:22:e1:3f:a3:6d:77:4a:
                    9e:17:68:42:ef:99:63:e0:0f:5c:35:4e:3a:ef:5a:
                    84:3c:c6:c1:ac:78:c5:fe:60:56:f4:e5:86:7d:60:
                    1b:55:3c:bd:6a:c8:22:ea:b6:c3:f6:8a:67:e8:cb:
                    5d:23:61:44:4b:9e:24:f8:91:69:25:90:0b:d7:2e:
                    84:3f:c1:a2:8f:87:68:a8:36:b3:a7:b3:c8:0e:06:
                    bd:6b:f3:54:41:d2:47:49:a7:2f:9b:3c:2f:37:89:
                    46:12:90:95:fe:6a:6f:5e:29:c6:d9:ea:90:47:29:
                    1b:85:1e:d3:19:e9:80:40:f7:33:67:bb:e5:17:50:
                    5c:cd
                Exponent: 65537 (0x10001)
    Signature Algorithm: sha256WithRSAEncryption
         8d:44:e0:60:b2:84:0b:75:3c:1b:b1:b9:a3:7b:1c:68:00:17:
         c7:ff:7b:ea:49:cb:79:e8:33:7c:ce:bd:22:f7:91:6e:6f:ca:
         1d:35:18:9c:fd:7a:3a:6d:8f:7a:f5:a0:ba:fa:db:08:be:52:
         50:36:2b:6d:a0:a1:1e:8c:ab:07:34:28:0b:fd:4d:1a:64:5c:
         bd:64:76:94:1d:1b:08:95:6d:3e:b7:15:3a:61:3d:2a:73:f9:
         6b:38:c5:b8:17:a8:62:cc:43:6c:f7:0f:05:02:d5:fa:d5:81:
         91:56:7c:9e:e2:1f:22:e8:e0:1d:68:02:10:08:fe:88:5f:03:
         d2:38:0b:68:0e:b4:c3:2c:3e:09:f6:48:22:75:12:65:f5:78:
         d0:6d:29:57:3c:75:f4:4b:cb:c0:c8:99:4f:82:df:2f:1f:97:
         17:5a:3c:05:79:69:e3:3e:d6:71:6b:71:bd:55:92:49:e1:6f:
         71:d5:73:96:89:e9:9c:63:b3:48:ee:f8:eb:1c:34:96:c1:98:
         69:4d:4c:e9:09:0e:e1:4e:44:62:20:48:18:cf:6a:a2:0a:a8:
         1d:29:3f:91:a7:e0:d6:14:6b:ba:fa:29:4f:df:eb:02:b2:59:
         bf:c9:20:14:bb:e8:72:a8:26:a6:4c:fe:76:7d:66:28:44:64:
         cf:65:91:38
-----BEGIN CERTIFICATE-----
MIICqTCCAZGgAwIBAgIBBDANBgkqhkiG9w0BAQsFADAfMR0wGwYDVQQDDBRUZXN0
IENBIFN1YmF1dGhvcml0eTAeFw03MDAxMDEwMDAwMDBaFw0zNDAxMjcxODQzMzJa
MBExDzANBgNVBAMMBnNpZ25lZDCCASIwDQYJKoZIhvcNAQEBBQADggEPADCCAQoC
ggEBAKwN4uFi7npV9kYKX+3cSqbU0Bl/qE3NoMFh1Oh4UNRdQB/gw3kmlRlMzXAQ
UzixaOR+1ERlaJSMtqvSIjbYsJK67T8A7LC2Xyas9ytx5NeKKEmo/vmhyLgJc4z3
05Cr7XT7JSm/gVGzrAKBusF/iq3XGG3Qcx5/2VTtC6Km134i4T+jbXdKnhdoQu+Z
Y+APXDVOOu9ahDzGwax4xf5gVvTlhn1gG1U8vWrIIuq2w/aKZ+jLXSNhREueJPiR
aSWQC9cuhD/Boo+HaKg2s6ezyA4GvWvzVEHSR0mnL5s8LzeJRhKQlf5qb14pxtnq
kEcpG4Ue0xnpgED3M2e75RdQXM0CAwEAATANBgkqhkiG9w0BAQsFAAOCAQEAjUTg
YLKEC3U8G7G5o3scaAAXx/976knLeegzfM69IveRbm/KHTUYnP16Om2PevWguvrb
CL5SUDYrbaChHoyrBzQoC/1NGmRcvWR2lB0bCJVtPrcVOmE9KnP5azjFuBeoYsxD
bPcPBQLV+tWBkVZ8nuIfIujgHWgCEAj+iF8D0jgLaA60wyw+CfZIInUSZfV40G0p
Vzx19EvLwMiZT4LfLx+XF1o8BXlp4z7WcWtxvVWSSeFvcdVzlonpnGOzSO746xw0
lsGYaU1M6QkO4U5EYiBIGM9qogqoHSk/kafg1hRruvopT9/rArJZv8kgFLvocqgm
pkz+dn1mKERkz2WROA==
-----END CERTIFICATE-----
