Certificate:
    Data:
        Version: 3 (0x2)
        Serial Number: 2 (0x2)
    Signature Algorithm: sha256WithRSAEncryption
        Issuer: CN=Test CA Subauthority
        Validity
            Not Before: Jan  1 00:00:00 1970 GMT
            Not After : Mar  9 21:35:53 2029 GMT
        Subject: CN=signed
        Subject Public Key Info:
            Public Key Algorithm: rsaEncryption
                Public-Key: (1024 bit)
                Modulus:
                    00:ad:cf:8f:ff:51:7a:86:cc:99:5d:14:8f:07:0c:
                    f7:e7:f7:e8:3c:46:90:38:d3:fa:71:91:57:42:3a:
                    bd:9a:80:24:e8:df:55:26:a6:8f:74:30:5c:5a:f4:
                    34:f0:db:76:24:1c:f1:cd:57:1b:80:93:2c:5c:e9:
                    b1:ea:21:c8:f6:58:52:ce:3f:b3:f6:32:6e:de:00:
                    b9:8e:a2:9f:07:08:ac:e7:32:6e:43:93:4a:eb:87:
                    d6:6c:e6:6a:4e:45:bd:f9:08:4b:71:d3:05:77:67:
                    87:26:08:12:62:37:09:5f:37:59:09:3e:80:74:b2:
                    69:43:46:32:99:b9:db:fe:05
                Exponent: 65537 (0x10001)
    Signature Algorithm: sha256WithRSAEncryption
         6a:6e:bf:67:1a:d4:05:70:ea:cb:b5:e6:8c:4e:1c:67:79:d1:
         67:12:aa:ea:b9:7c:02:3e:8c:b5:98:bb:5c:b2:1d:74:2f:77:
         4e:19:15:9d:6a:ae:5e:19:2b:5c:34:94:4b:88:9f:c1:08:75:
         a0:84:94:7c:83:e5:a8:14:49:2b:e8:12:06:51:10:da:d0:69:
         ce:55:3c:25:17:cc:2a:6b:a3:87:a8:00:2e:5a:6e:92:c4:29:
         ed:65:6b:69:9b:aa:0c:50:5d:73:1e:0d:1d:31:5d:55:3a:a5:
         7c:9c:e9:86:c4:f4:5e:a7:2e:4f:6b:99:de:4d:8b:4b:d3:95:
         e3:6e
-----BEGIN CERTIFICATE-----
MIIBpDCCAQ2gAwIBAgIBAjANBgkqhkiG9w0BAQsFADAfMR0wGwYDVQQDDBRUZXN0
IENBIFN1YmF1dGhvcml0eTAeFw03MDAxMDEwMDAwMDBaFw0yOTAzMDkyMTM1NTNa
MBExDzANBgNVBAMMBnNpZ25lZDCBnzANBgkqhkiG9w0BAQEFAAOBjQAwgYkCgYEA
rc+P/1F6hsyZXRSPBwz35/foPEaQONP6cZFXQjq9moAk6N9VJqaPdDBcWvQ08Nt2
JBzxzVcbgJMsXOmx6iHI9lhSzj+z9jJu3gC5jqKfBwis5zJuQ5NK64fWbOZqTkW9
+QhLcdMFd2eHJggSYjcJXzdZCT6AdLJpQ0Yymbnb/gUCAwEAATANBgkqhkiG9w0B
AQsFAAOBgQBqbr9nGtQFcOrLteaMThxnedFnEqrquXwCPoy1mLtcsh10L3dOGRWd
aq5eGStcNJRLiJ/BCHWghJR8g+WoFEkr6BIGURDa0GnOVTwlF8wqa6OHqAAuWm6S
xCntZWtpm6oMUF1zHg0dMV1VOqV8nOmGxPRepy5Pa5neTYtL05Xjbg==
-----END CERTIFICATE-----
