Certificate:
    Data:
        Version: 3 (0x2)
        Serial Number: 4 (0x4)
        Signature Algorithm: sha256WithRSAEncryption
        Issuer: CN=Test CA Subauthority
        Validity
            Not Before: Jan  1 00:00:00 1970 GMT
            Not After : Apr 18 18:46:23 2031 GMT
        Subject: CN=signed
        Subject Public Key Info:
            Public Key Algorithm: rsaEncryption
                RSA Public-Key: (2048 bit)
                Modulus:
                    00:db:90:d7:cf:fe:81:bc:51:d1:a1:d2:d9:0f:c2:
                    21:16:06:3d:12:87:7c:e9:45:97:28:f4:33:12:51:
                    d2:b3:31:be:13:5d:28:a8:b5:fb:8f:0e:ce:3e:bb:
                    42:7a:3f:ba:35:e9:58:2a:fb:61:38:c0:6b:37:9f:
                    3f:de:b9:64:5b:c3:08:21:64:d7:c2:af:0a:ac:21:
                    0b:ed:c1:8a:71:fe:05:27:eb:4b:31:ba:79:62:e5:
                    41:ef:dd:66:85:76:28:bb:03:08:c7:35:26:85:c2:
                    f8:3b:1f:67:45:39:73:ce:d8:5d:df:4a:0b:4e:8c:
                    85:29:02:98:04:95:e9:d3:f6:d1:9f:6c:25:ce:a3:
                    81:4c:c7:4d:b5:ce:43:12:d9:b2:f1:68:c8:fd:a3:
                    57:16:f5:7a:42:85:fe:19:b5:ee:e8:3f:da:27:85:
                    82:c9:ec:d6:63:bf:cd:4b:75:1e:a0:c5:8f:ce:90:
                    b8:ca:25:ba:45:52:6d:e4:ea:6d:e5:1d:41:8e:4f:
                    33:4a:97:23:8e:c1:98:d4:60:a7:1e:1c:28:31:0d:
                    05:c8:a2:d2:d7:7a:d9:c3:46:26:a1:e7:ef:67:e7:
                    6b:ce:97:8a:37:0b:d7:e2:28:b0:33:85:b0:89:6b:
                    38:83:ae:a3:02:a7:d2:1a:87:f0:88:a6:a3:1a:db:
                    97:53
                Exponent: 65537 (0x10001)
    Signature Algorithm: sha256WithRSAEncryption
         53:37:9e:35:1c:d7:55:72:4c:2f:1b:47:52:0a:cf:ca:39:8f:
         c7:4d:8e:07:89:7e:cd:f8:9d:44:f5:81:a6:de:89:1a:c0:4d:
         d7:bd:92:da:84:3b:e3:47:ac:11:c3:98:65:08:65:bf:b8:9b:
         2f:24:c1:73:2e:55:03:fc:79:c9:91:07:34:15:1e:14:ec:60:
         5f:d1:82:7a:35:aa:06:74:59:48:35:b6:cd:05:b7:2f:4d:f0:
         08:c3:06:3b:cd:52:02:2e:b6:a4:b8:41:26:b3:49:85:85:e8:
         eb:c0:9e:3d:94:16:3b:23:93:b7:3e:32:d2:f6:7f:8d:30:fd:
         c2:f8:7c:3b:b1:62:c6:a4:dc:4b:d2:5c:b2:4c:83:7e:b5:dc:
         75:bf:36:d3:1b:f2:ab:37:2d:6b:30:8a:fc:c1:d8:e3:32:a2:
         4a:d1:bc:2d:9b:a4:91:62:cd:06:b6:8c:5d:51:89:21:87:61:
         02:d4:b8:41:6e:80:e5:3e:3b:2e:47:df:fc:2a:35:19:00:36:
         28:ba:ef:8c:00:4d:38:0e:f9:1a:a5:a9:d0:9b:ec:66:5a:54:
         40:f8:39:bc:32:f4:55:a7:9e:93:82:90:0a:8c:cf:51:76:a9:
         fb:03:1d:9e:eb:92:90:b2:bd:a5:2a:98:a2:23:a0:ac:5d:f0:
         34:e3:e3:2a
-----BEGIN CERTIFICATE-----
MIICqTCCAZGgAwIBAgIBBDANBgkqhkiG9w0BAQsFADAfMR0wGwYDVQQDDBRUZXN0
IENBIFN1YmF1dGhvcml0eTAeFw03MDAxMDEwMDAwMDBaFw0zMTA0MTgxODQ2MjNa
MBExDzANBgNVBAMMBnNpZ25lZDCCASIwDQYJKoZIhvcNAQEBBQADggEPADCCAQoC
ggEBANuQ18/+gbxR0aHS2Q/CIRYGPRKHfOlFlyj0MxJR0rMxvhNdKKi1+48Ozj67
Qno/ujXpWCr7YTjAazefP965ZFvDCCFk18KvCqwhC+3BinH+BSfrSzG6eWLlQe/d
ZoV2KLsDCMc1JoXC+DsfZ0U5c87YXd9KC06MhSkCmASV6dP20Z9sJc6jgUzHTbXO
QxLZsvFoyP2jVxb1ekKF/hm17ug/2ieFgsns1mO/zUt1HqDFj86QuMolukVSbeTq
beUdQY5PM0qXI47BmNRgpx4cKDENBcii0td62cNGJqHn72fna86XijcL1+IosDOF
sIlrOIOuowKn0hqH8Iimoxrbl1MCAwEAATANBgkqhkiG9w0BAQsFAAOCAQEAUzee
NRzXVXJMLxtHUgrPyjmPx02OB4l+zfidRPWBpt6JGsBN172S2oQ740esEcOYZQhl
v7ibLyTBcy5VA/x5yZEHNBUeFOxgX9GCejWqBnRZSDW2zQW3L03wCMMGO81SAi62
pLhBJrNJhYXo68CePZQWOyOTtz4y0vZ/jTD9wvh8O7FixqTcS9JcskyDfrXcdb82
0xvyqzctazCK/MHY4zKiStG8LZukkWLNBraMXVGJIYdhAtS4QW6A5T47Lkff/Co1
GQA2KLrvjABNOA75GqWp0JvsZlpUQPg5vDL0Vaeek4KQCozPUXap+wMdnuuSkLK9
pSqYoiOgrF3wNOPjKg==
-----END CERTIFICATE-----
