Certificate:
    Data:
        Version: 3 (0x2)
        Serial Number: 2 (0x2)
    Signature Algorithm: sha256WithRSAEncryption
        Issuer: CN=Test CA Subauthority
        Validity
            Not Before: Jan  1 00:00:00 1970 GMT
            Not After : Mar  3 20:26:24 2029 GMT
        Subject: CN=signed
        Subject Public Key Info:
            Public Key Algorithm: rsaEncryption
                Public-Key: (1024 bit)
                Modulus:
                    00:9e:6a:e5:e9:fb:b8:29:aa:70:81:d5:55:11:34:
                    6d:21:19:77:e9:50:a5:bd:ea:e5:ac:73:71:70:1e:
                    60:c2:7a:73:34:af:99:aa:ae:67:fc:dc:06:d1:85:
                    79:93:28:31:5c:e4:60:03:4e:18:08:9e:f1:96:d0:
                    0d:5e:31:ea:a6:d1:81:ca:d5:30:d3:c2:17:62:5c:
                    30:5f:8e:26:35:34:c4:f0:ed:a5:37:98:36:cb:b5:
                    40:e7:0b:6a:ce:84:a4:5a:36:7a:61:25:00:be:e1:
                    a8:46:a7:7c:ec:ca:f4:ad:3e:a6:72:8c:a0:b0:17:
                    f0:f6:7e:af:1f:c3:ee:c5:79
                Exponent: 65537 (0x10001)
    Signature Algorithm: sha256WithRSAEncryption
         93:64:2b:82:9f:e6:07:31:d5:87:22:b3:37:e5:bf:86:d0:fc:
         98:40:63:c6:69:a2:d1:0a:af:18:11:31:c0:7d:e6:a8:cb:24:
         57:7f:14:26:5f:cd:8d:17:21:67:42:51:fa:1b:9a:8f:4b:98:
         d8:c0:f1:5f:ff:2a:27:eb:4b:8c:d4:80:63:c3:d9:41:ea:ca:
         e9:01:ee:42:7a:84:6e:2d:45:88:4a:6e:7b:fe:7c:df:72:9a:
         ef:0a:41:98:69:75:4a:a1:e2:e6:03:1a:93:e6:fc:32:56:ab:
         eb:88:3f:a1:c1:59:e8:82:85:4c:fa:73:ad:5b:64:13:cf:fa:
         01:f1
-----BEGIN CERTIFICATE-----
MIIBpDCCAQ2gAwIBAgIBAjANBgkqhkiG9w0BAQsFADAfMR0wGwYDVQQDDBRUZXN0
IENBIFN1YmF1dGhvcml0eTAeFw03MDAxMDEwMDAwMDBaFw0yOTAzMDMyMDI2MjRa
MBExDzANBgNVBAMMBnNpZ25lZDCBnzANBgkqhkiG9w0BAQEFAAOBjQAwgYkCgYEA
nmrl6fu4KapwgdVVETRtIRl36VClverlrHNxcB5gwnpzNK+Zqq5n/NwG0YV5kygx
XORgA04YCJ7xltANXjHqptGBytUw08IXYlwwX44mNTTE8O2lN5g2y7VA5wtqzoSk
WjZ6YSUAvuGoRqd87Mr0rT6mcoygsBfw9n6vH8PuxXkCAwEAATANBgkqhkiG9w0B
AQsFAAOBgQCTZCuCn+YHMdWHIrM35b+G0PyYQGPGaaLRCq8YETHAfeaoyyRXfxQm
X82NFyFnQlH6G5qPS5jYwPFf/yon60uM1IBjw9lB6srpAe5CeoRuLUWISm57/nzf
cprvCkGYaXVKoeLmAxqT5vwyVqvriD+hwVnogoVM+nOtW2QTz/oB8Q==
-----END CERTIFICATE-----
