Certificate:
    Data:
        Version: 3 (0x2)
        Serial Number: 2 (0x2)
    Signature Algorithm: sha256WithRSAEncryption
        Issuer: CN=Test CA Subauthority
        Validity
            Not Before: Jan  1 00:00:00 1970 GMT
            Not After : Apr 19 22:31:22 2029 GMT
        Subject: CN=signed
        Subject Public Key Info:
            Public Key Algorithm: rsaEncryption
                Public-Key: (1024 bit)
                Modulus:
                    00:ef:bc:2c:47:fa:12:2d:09:ef:16:96:90:8b:84:
                    45:c7:86:f1:5e:8f:58:59:23:87:df:a1:e3:be:8c:
                    2f:ad:70:96:1a:f5:67:7f:5c:9c:54:5e:82:de:05:
                    7f:8f:9d:c9:f3:24:72:39:4f:1c:b4:a6:e0:d0:19:
                    af:bd:e4:29:65:bb:d7:43:3e:66:d3:4f:74:05:0b:
                    8a:e4:d5:52:08:af:9b:f4:f4:7d:6c:92:5f:cc:bb:
                    c2:2d:ca:d0:12:28:e5:c8:fd:f6:09:90:dd:85:f9:
                    85:d9:37:a6:fe:83:c7:24:e4:af:28:e3:ff:5a:1b:
                    72:5f:29:c6:39:88:5b:48:19
                Exponent: 65537 (0x10001)
    Signature Algorithm: sha256WithRSAEncryption
         15:6b:ed:44:0d:41:6e:10:98:10:34:d6:c0:f8:18:38:2f:13:
         20:19:12:54:53:9f:7c:29:50:93:0a:15:7d:50:0a:95:a0:ce:
         e4:4f:a7:8a:d1:f6:b2:86:44:33:07:d3:1b:28:37:9d:71:21:
         90:fe:41:06:ab:79:5a:5f:7c:bf:dc:83:8a:64:63:8b:04:81:
         33:7e:0f:94:4a:54:7c:58:5c:68:60:b3:25:03:1d:6c:d3:f1:
         d0:97:e0:8d:ac:75:37:76:0c:11:6c:81:fe:72:3a:90:80:c8:
         32:c0:89:f9:6b:b9:9c:1d:06:64:42:4e:18:86:06:e2:7d:ed:
         93:ec
-----BEGIN CERTIFICATE-----
MIIBpDCCAQ2gAwIBAgIBAjANBgkqhkiG9w0BAQsFADAfMR0wGwYDVQQDDBRUZXN0
IENBIFN1YmF1dGhvcml0eTAeFw03MDAxMDEwMDAwMDBaFw0yOTA0MTkyMjMxMjJa
MBExDzANBgNVBAMMBnNpZ25lZDCBnzANBgkqhkiG9w0BAQEFAAOBjQAwgYkCgYEA
77wsR/oSLQnvFpaQi4RFx4bxXo9YWSOH36HjvowvrXCWGvVnf1ycVF6C3gV/j53J
8yRyOU8ctKbg0BmvveQpZbvXQz5m0090BQuK5NVSCK+b9PR9bJJfzLvCLcrQEijl
yP32CZDdhfmF2Tem/oPHJOSvKOP/WhtyXynGOYhbSBkCAwEAATANBgkqhkiG9w0B
AQsFAAOBgQAVa+1EDUFuEJgQNNbA+Bg4LxMgGRJUU598KVCTChV9UAqVoM7kT6eK
0fayhkQzB9MbKDedcSGQ/kEGq3laX3y/3IOKZGOLBIEzfg+USlR8WFxoYLMlAx1s
0/HQl+CNrHU3dgwRbIH+cjqQgMgywIn5a7mcHQZkQk4Yhgbife2T7A==
-----END CERTIFICATE-----
