Certificate:
    Data:
        Version: 3 (0x2)
        Serial Number: 4 (0x4)
        Signature Algorithm: sha256WithRSAEncryption
        Issuer: CN=Test CA Subauthority
        Validity
            Not Before: Jan  1 00:00:00 1970 GMT
            Not After : Jun 15 01:19:37 2031 GMT
        Subject: CN=signed
        Subject Public Key Info:
            Public Key Algorithm: rsaEncryption
                RSA Public-Key: (2048 bit)
                Modulus:
                    00:94:3b:fc:18:7e:09:d6:93:10:9a:d7:df:84:49:
                    74:7d:9a:0e:91:ff:31:ca:9f:c0:c0:cf:4a:6b:1e:
                    be:77:b0:82:9f:a6:17:fc:f3:99:f1:e5:ed:c4:d3:
                    e1:f4:e8:ee:d2:70:3b:98:b1:21:55:9a:9e:6d:89:
                    f1:82:ba:82:43:00:af:e6:05:7e:0f:a1:50:ff:ec:
                    77:88:28:92:a2:f0:f9:29:1d:cb:86:ca:63:a9:c7:
                    9e:01:99:6e:56:c8:39:f1:c6:33:b9:b4:96:b2:05:
                    5e:e1:f7:1c:55:58:23:ec:bd:bb:4d:a0:54:3c:09:
                    d0:c9:83:27:9b:3c:f5:50:8c:1e:54:22:b3:0a:0f:
                    97:c1:68:d5:07:b7:0d:b9:16:d6:f8:d0:2c:87:25:
                    5e:53:65:31:d5:d6:94:ab:8b:77:29:a2:78:4e:c7:
                    cf:66:f2:79:f2:66:ca:ce:c9:9a:04:a2:0d:47:6f:
                    a0:1c:cc:39:7d:f2:01:73:3d:9c:56:0f:15:f6:06:
                    92:98:19:9b:52:ed:43:f8:84:6c:1f:96:0b:dd:8e:
                    c7:0f:dc:13:08:7b:1a:07:c1:ac:de:ba:dc:ce:1b:
                    a8:c5:c5:d5:c8:6c:32:6a:e2:2c:aa:e2:56:ba:55:
                    b4:3c:2b:7f:87:99:3e:d0:0c:47:ba:6e:60:86:2b:
                    3d:51
                Exponent: 65537 (0x10001)
    Signature Algorithm: sha256WithRSAEncryption
         0a:bb:98:88:03:a0:98:98:74:30:d6:fd:27:ee:e9:52:51:14:
         c8:27:d9:4c:e6:83:c6:ca:dc:7f:c1:9e:81:ab:6f:d2:1c:f5:
         e9:ec:39:d5:24:2f:9b:43:15:47:6a:be:f4:fa:65:ad:08:ac:
         be:5b:f9:3e:c1:4b:74:d6:d5:72:23:74:5e:87:b2:df:e2:f8:
         e3:94:07:14:a5:5c:a6:69:0c:48:1d:ac:bd:2d:85:e2:5c:41:
         9d:02:29:13:d1:30:05:2c:d2:f7:15:91:e5:70:de:5e:16:f1:
         1c:c6:62:d3:2b:92:2a:69:40:74:23:60:e6:ce:6c:65:3a:22:
         1b:66:c7:53:c9:07:95:29:fd:8f:d0:02:e4:a2:e4:72:2e:38:
         54:3d:60:ad:6e:35:83:cc:f8:9d:db:fd:e9:68:21:42:db:7a:
         58:db:c3:bc:bc:e9:a7:d4:6b:b9:b0:24:eb:e2:9d:d7:4d:61:
         a7:0c:57:0c:f1:12:2f:48:a7:1b:e6:f9:37:32:10:56:5a:78:
         4f:3e:9b:1b:6d:db:01:11:13:31:68:2c:ce:a5:41:c5:36:3d:
         1a:29:3b:15:cd:09:51:82:07:7a:f2:98:0d:bd:dd:2e:02:8d:
         18:39:2a:ee:5b:9b:c8:49:71:3a:2b:38:07:c0:3a:03:cf:67:
         b4:ff:c9:97
-----BEGIN CERTIFICATE-----
MIICqTCCAZGgAwIBAgIBBDANBgkqhkiG9w0BAQsFADAfMR0wGwYDVQQDDBRUZXN0
IENBIFN1YmF1dGhvcml0eTAeFw03MDAxMDEwMDAwMDBaFw0zMTA2MTUwMTE5Mzda
MBExDzANBgNVBAMMBnNpZ25lZDCCASIwDQYJKoZIhvcNAQEBBQADggEPADCCAQoC
ggEBAJQ7/Bh+CdaTEJrX34RJdH2aDpH/McqfwMDPSmsevnewgp+mF/zzmfHl7cTT
4fTo7tJwO5ixIVWanm2J8YK6gkMAr+YFfg+hUP/sd4gokqLw+Skdy4bKY6nHngGZ
blbIOfHGM7m0lrIFXuH3HFVYI+y9u02gVDwJ0MmDJ5s89VCMHlQiswoPl8Fo1Qe3
DbkW1vjQLIclXlNlMdXWlKuLdymieE7Hz2byefJmys7JmgSiDUdvoBzMOX3yAXM9
nFYPFfYGkpgZm1LtQ/iEbB+WC92Oxw/cEwh7GgfBrN663M4bqMXF1chsMmriLKri
VrpVtDwrf4eZPtAMR7puYIYrPVECAwEAATANBgkqhkiG9w0BAQsFAAOCAQEACruY
iAOgmJh0MNb9J+7pUlEUyCfZTOaDxsrcf8Gegatv0hz16ew51SQvm0MVR2q+9Ppl
rQisvlv5PsFLdNbVciN0Xoey3+L445QHFKVcpmkMSB2svS2F4lxBnQIpE9EwBSzS
9xWR5XDeXhbxHMZi0yuSKmlAdCNg5s5sZToiG2bHU8kHlSn9j9AC5KLkci44VD1g
rW41g8z4ndv96WghQtt6WNvDvLzpp9RrubAk6+Kd101hpwxXDPESL0inG+b5NzIQ
Vlp4Tz6bG23bARETMWgszqVBxTY9Gik7Fc0JUYIHevKYDb3dLgKNGDkq7lubyElx
Ois4B8A6A89ntP/Jlw==
-----END CERTIFICATE-----
