Certificate Request:
    Data:
        Version: 3 (0x2)
        Subject: CN=signed
        Subject Public Key Info:
            Public Key Algorithm: rsaEncryption
                Public-Key: (1024 bit)
                Modulus:
                    00:c1:cf:0a:79:46:63:ed:c2:9e:2b:a6:2a:4d:2b:
                    9b:e6:f3:d0:cd:98:3e:55:ab:ea:be:a9:41:a6:db:
                    ad:1e:ea:33:64:b9:18:67:b1:8b:53:5a:12:69:eb:
                    d1:ad:a9:85:6e:7d:f0:ef:a4:4b:1a:c4:75:71:4f:
                    3a:5c:7a:59:43:ab:b4:65:fd:75:0e:0a:6f:ac:a0:
                    35:fc:fc:34:6c:38:9e:1d:95:26:81:cf:8b:24:d3:
                    c1:65:d0:57:fb:e7:b1:1b:57:61:5c:40:2a:0f:a0:
                    7d:d8:26:c6:9e:b5:bf:fd:0f:72:6a:df:2b:23:2f:
                    01:39:21:42:a6:43:13:07:55
                Exponent: 65537 (0x10001)
        Attributes:
            a0:00
    Signature Algorithm: sha256WithRSAEncryption
         7a:96:63:e3:47:6b:3d:c2:03:79:cb:c1:98:58:b6:ec:9e:5b:
         43:fe:0a:42:7a:fc:e6:e4:0a:fc:15:6e:b6:c5:f3:5e:fb:43:
         ab:d3:fb:35:83:52:ba:3e:81:77:3b:f3:9d:05:24:5b:91:a6:
         9b:90:48:13:f2:ec:2a:9d:8f:1c:c6:46:f0:a0:76:ae:fe:f9:
         d4:16:5e:5a:9d:85:bc:ec:f1:28:86:1a:0f:ce:2a:f9:4f:ab:
         91:84:39:10:9e:53:61:88:cc:06:5a:32:53:6e:d8:79:6b:6d:
         3a:47:0a:5a:63:0d:73:e0:ac:96:4f:00:ea:4d:6d:44:1d:17:
         7a:9a
-----BEGIN CERTIFICATE REQUEST-----
MIIBUDCBugIBAjARMQ8wDQYDVQQDDAZzaWduZWQwgZ8wDQYJKoZIhvcNAQEBBQAD
gY0AMIGJAoGBAMHPCnlGY+3CniumKk0rm+bz0M2YPlWr6r6pQabbrR7qM2S5GGex
i1NaEmnr0a2phW598O+kSxrEdXFPOlx6WUOrtGX9dQ4Kb6ygNfz8NGw4nh2VJoHP
iyTTwWXQV/vnsRtXYVxAKg+gfdgmxp61v/0PcmrfKyMvATkhQqZDEwdVAgMBAAGg
ADANBgkqhkiG9w0BAQsFAAOBgQB6lmPjR2s9wgN5y8GYWLbsnltD/gpCevzm5Ar8
FW62xfNe+0Or0/s1g1K6PoF3O/OdBSRbkaabkEgT8uwqnY8cxkbwoHau/vnUFl5a
nYW87PEohhoPzir5T6uRhDkQnlNhiMwGWjJTbth5a206RwpaYw1z4KyWTwDqTW1E
HRd6mg==
-----END CERTIFICATE REQUEST-----
