Certificate Request:
    Data:
        Version: 3 (0x2)
        Subject: CN=signed
        Subject Public Key Info:
            Public Key Algorithm: rsaEncryption
                RSA Public-Key: (2048 bit)
                Modulus:
                    00:ca:3c:49:ca:69:e4:42:bc:a6:01:37:4e:c6:6c:
                    1e:a9:d3:b1:7d:20:b6:7f:a9:74:c2:ce:33:f8:32:
                    85:50:8a:c4:da:d6:47:2c:8e:3e:ef:9e:14:42:b3:
                    43:b9:9f:59:ca:18:2c:32:f8:f8:5d:c6:74:1b:29:
                    27:f8:d0:90:05:2e:03:46:b3:a2:c2:9d:38:de:06:
                    f6:30:52:ff:e5:26:6e:88:fc:c4:23:32:f3:d3:09:
                    67:1d:a6:52:f1:cc:06:28:2b:4e:af:7b:b2:50:a9:
                    4f:7f:9b:62:6b:5a:cb:8c:f6:7e:ae:ed:a2:f2:4f:
                    0d:d2:f5:42:2e:d8:50:b8:0f:fc:38:cd:80:7d:2a:
                    d8:fc:76:e6:f7:28:91:f9:59:a7:d7:81:88:78:5c:
                    74:0c:82:9b:14:65:35:2d:04:69:53:24:e4:c2:37:
                    96:36:61:0b:e0:0f:2c:ac:50:85:84:ca:68:df:a4:
                    15:2a:b0:a3:03:50:1f:11:45:d4:82:6a:02:eb:76:
                    8b:82:1c:36:2b:8c:7e:3b:a6:12:c4:5a:8a:20:ab:
                    2d:08:f8:49:1b:d6:f9:45:dc:d8:34:6c:8c:7b:2d:
                    2a:8a:c6:87:d0:6a:45:20:9d:f0:43:d0:0f:0a:a2:
                    69:d6:9b:a1:69:9c:57:e8:b2:f8:56:8f:f6:e4:24:
                    af:c1
                Exponent: 65537 (0x10001)
        Attributes:
            a0:00
    Signature Algorithm: sha256WithRSAEncryption
         9f:1b:09:61:fd:59:7a:99:8d:c3:f3:44:44:10:af:ac:82:f6:
         20:5e:5e:3d:e3:07:af:e7:f6:0e:31:1f:ae:7e:bc:fd:4c:db:
         53:8c:6b:6b:ea:76:e7:96:2c:21:f7:e7:ac:ff:ce:47:ec:e3:
         61:c2:40:3a:0a:58:ac:94:80:c2:24:25:c3:75:82:8a:60:aa:
         c6:20:8a:b6:28:b6:97:56:7e:0c:92:d8:da:2f:e0:0e:59:6d:
         e1:55:b0:01:a1:e7:a9:bc:57:a1:50:de:b3:47:8a:cc:2c:44:
         cd:5a:9b:bf:64:d3:aa:f9:b1:b2:55:db:c6:6f:5a:6c:54:19:
         8b:4d:b2:9c:54:e0:2b:6e:c7:8c:26:d4:8d:c7:6c:43:8d:3b:
         d1:12:87:c2:ca:ba:49:1f:93:eb:e2:8a:a9:7c:7d:e6:32:f6:
         78:83:ab:54:9b:47:d1:c1:c2:bb:b4:25:b0:9d:bb:29:40:db:
         30:7f:9a:4d:7a:94:5b:a0:1d:33:99:0e:9a:02:f3:4f:a4:82:
         dd:47:15:f6:76:03:14:9f:60:9e:89:1a:4f:04:fa:a8:23:49:
         48:af:65:bd:8c:3a:0f:77:fa:c3:86:d4:87:1a:9c:94:61:28:
         0b:72:2e:91:98:19:0b:fe:9a:93:45:2a:92:a7:93:83:89:d9:
         93:6b:d5:ee
-----BEGIN CERTIFICATE REQUEST-----
MIICVjCCAT4CAQIwETEPMA0GA1UEAwwGc2lnbmVkMIIBIjANBgkqhkiG9w0BAQEF
AAOCAQ8AMIIBCgKCAQEAyjxJymnkQrymATdOxmweqdOxfSC2f6l0ws4z+DKFUIrE
2tZHLI4+754UQrNDuZ9ZyhgsMvj4XcZ0Gykn+NCQBS4DRrOiwp043gb2MFL/5SZu
iPzEIzLz0wlnHaZS8cwGKCtOr3uyUKlPf5tia1rLjPZ+ru2i8k8N0vVCLthQuA/8
OM2AfSrY/Hbm9yiR+Vmn14GIeFx0DIKbFGU1LQRpUyTkwjeWNmEL4A8srFCFhMpo
36QVKrCjA1AfEUXUgmoC63aLghw2K4x+O6YSxFqKIKstCPhJG9b5RdzYNGyMey0q
isaH0GpFIJ3wQ9APCqJp1puhaZxX6LL4Vo/25CSvwQIDAQABoAAwDQYJKoZIhvcN
AQELBQADggEBAJ8bCWH9WXqZjcPzREQQr6yC9iBeXj3jB6/n9g4xH65+vP1M21OM
a2vqdueWLCH356z/zkfs42HCQDoKWKyUgMIkJcN1gopgqsYgirYotpdWfgyS2Nov
4A5ZbeFVsAGh56m8V6FQ3rNHiswsRM1am79k06r5sbJV28ZvWmxUGYtNspxU4Ctu
x4wm1I3HbEONO9ESh8LKukkfk+viiql8feYy9niDq1SbR9HBwru0JbCduylA2zB/
mk16lFugHTOZDpoC80+kgt1HFfZ2AxSfYJ6JGk8E+qgjSUivZb2MOg93+sOG1Ica
nJRhKAtyLpGYGQv+mpNFKpKnk4OJ2ZNr1e4=
-----END CERTIFICATE REQUEST-----
