Certificate Request:
    Data:
        Version: 3 (0x2)
        Subject: CN=signed
        Subject Public Key Info:
            Public Key Algorithm: rsaEncryption
                Public-Key: (1024 bit)
                Modulus:
                    00:e1:68:5e:47:1f:e6:18:f7:16:a3:c8:fb:50:46:
                    4e:01:3a:29:68:65:b5:6b:ea:17:a8:1e:20:33:75:
                    11:0e:22:7a:81:ca:ed:56:e5:8d:a0:32:52:b1:b9:
                    41:96:7a:b2:99:cb:b4:37:df:b5:13:42:8e:e0:a8:
                    2b:02:13:18:90:07:b6:7c:76:f4:f1:9d:22:5c:f4:
                    ab:7e:21:8e:4c:fa:1f:cf:92:88:24:b9:f7:51:b7:
                    37:f6:70:98:c9:91:e6:8b:aa:05:52:50:87:0f:2d:
                    f4:27:3c:3d:f3:77:91:5d:36:8f:1b:b6:3b:57:ed:
                    41:2e:95:7d:15:b9:27:00:1d
                Exponent: 65537 (0x10001)
        Attributes:
            a0:00
    Signature Algorithm: sha256WithRSAEncryption
         6b:47:7b:d9:3a:73:cd:91:2d:6c:25:04:5c:22:a4:1f:32:56:
         e1:e3:e2:e0:0c:12:c8:ef:3b:64:dc:52:ca:39:ac:21:ed:19:
         33:33:32:76:d2:40:83:cf:eb:f9:14:00:9c:92:50:c1:f4:e8:
         d5:88:2e:e0:d2:87:3a:14:95:34:c6:dc:9e:7d:67:4a:71:6d:
         e0:2e:8e:9e:25:89:ee:4a:f9:e1:57:c2:72:c2:21:65:5b:1d:
         0c:7d:f0:e2:49:7d:2d:96:b3:08:8d:38:a6:c2:19:53:69:16:
         62:e1:79:88:70:4f:7a:7b:e2:20:44:9d:36:6d:b6:04:65:55:
         81:b7
-----BEGIN CERTIFICATE REQUEST-----
MIIBUDCBugIBAjARMQ8wDQYDVQQDDAZzaWduZWQwgZ8wDQYJKoZIhvcNAQEBBQAD
gY0AMIGJAoGBAOFoXkcf5hj3FqPI+1BGTgE6KWhltWvqF6geIDN1EQ4ieoHK7Vbl
jaAyUrG5QZZ6spnLtDfftRNCjuCoKwITGJAHtnx29PGdIlz0q34hjkz6H8+SiCS5
91G3N/ZwmMmR5ouqBVJQhw8t9Cc8PfN3kV02jxu2O1ftQS6VfRW5JwAdAgMBAAGg
ADANBgkqhkiG9w0BAQsFAAOBgQBrR3vZOnPNkS1sJQRcIqQfMlbh4+LgDBLI7ztk
3FLKOawh7RkzMzJ20kCDz+v5FACcklDB9OjViC7g0oc6FJU0xtyefWdKcW3gLo6e
JYnuSvnhV8JywiFlWx0MffDiSX0tlrMIjTimwhlTaRZi4XmIcE96e+IgRJ02bbYE
ZVWBtw==
-----END CERTIFICATE REQUEST-----
