Certificate:
    Data:
        Version: 3 (0x2)
        Serial Number: 9 (0x9)
    Signature Algorithm: sha256WithRSAEncryption
        Issuer: CN=Test CA Subauthority
        Validity
            Not Before: Jan  1 00:00:00 1970 GMT
            Not After : Apr 19 22:31:22 2029 GMT
        Subject: CN=signed
        Subject Public Key Info:
            Public Key Algorithm: rsaEncryption
                Public-Key: (1024 bit)
                Modulus:
                    00:a9:7c:f9:23:fa:ff:7d:12:60:1a:04:d0:80:0c:
                    41:97:e0:5a:d0:b6:83:ce:1c:f1:8f:43:86:94:60:
                    80:7d:fe:13:42:36:81:b4:31:33:01:89:0d:6d:ea:
                    70:76:2d:6d:73:1c:24:95:48:55:62:2d:b4:99:b2:
                    d7:6c:ea:cc:88:5e:69:83:79:01:99:59:0d:fe:93:
                    9c:9c:5c:77:33:29:28:98:74:75:1b:f4:9b:8d:f4:
                    42:83:55:69:b5:2b:1c:38:89:1b:c0:ba:0c:16:0c:
                    e3:3f:8c:83:bc:ac:31:22:aa:47:03:85:c3:1b:3e:
                    45:1b:ab:2b:3f:3c:80:c0:61
                Exponent: 65537 (0x10001)
    Signature Algorithm: sha256WithRSAEncryption
         9f:61:e2:9b:06:b2:84:67:53:c3:da:72:3e:d6:46:d8:37:8a:
         a1:2e:72:5f:cf:1d:cf:75:63:da:ad:0b:50:3a:71:e0:70:66:
         23:0e:54:5d:5a:af:4e:58:20:c5:64:0c:ec:e7:ed:f8:7a:c1:
         be:cd:fc:8d:cb:24:10:47:24:1f:b1:79:98:40:cc:37:00:15:
         ab:7b:0b:80:89:3a:e5:e5:d5:98:d5:12:3f:a6:ac:37:7b:30:
         1b:1b:d0:3b:72:c0:51:f7:50:e9:a1:bf:d5:06:f9:c1:c1:d7:
         30:c4:0e:38:73:4d:06:de:52:42:cf:d1:6d:04:d0:2b:94:ef:
         95:ff
-----BEGIN CERTIFICATE-----
MIIBpDCCAQ2gAwIBAgIBCTANBgkqhkiG9w0BAQsFADAfMR0wGwYDVQQDDBRUZXN0
IENBIFN1YmF1dGhvcml0eTAeFw03MDAxMDEwMDAwMDBaFw0yOTA0MTkyMjMxMjJa
MBExDzANBgNVBAMMBnNpZ25lZDCBnzANBgkqhkiG9w0BAQEFAAOBjQAwgYkCgYEA
qXz5I/r/fRJgGgTQgAxBl+Ba0LaDzhzxj0OGlGCAff4TQjaBtDEzAYkNbepwdi1t
cxwklUhVYi20mbLXbOrMiF5pg3kBmVkN/pOcnFx3MykomHR1G/SbjfRCg1VptSsc
OIkbwLoMFgzjP4yDvKwxIqpHA4XDGz5FG6srPzyAwGECAwEAATANBgkqhkiG9w0B
AQsFAAOBgQCfYeKbBrKEZ1PD2nI+1kbYN4qhLnJfzx3PdWParQtQOnHgcGYjDlRd
Wq9OWCDFZAzs5+34esG+zfyNyyQQRyQfsXmYQMw3ABWrewuAiTrl5dWY1RI/pqw3
ezAbG9A7csBR91Dpob/VBvnBwdcwxA44c00G3lJCz9FtBNArlO+V/w==
-----END CERTIFICATE-----
