Certificate:
    Data:
        Version: 3 (0x2)
        Serial Number: 13 (0xd)
        Signature Algorithm: sha256WithRSAEncryption
        Issuer: CN=Test CA Subauthority
        Validity
            Not Before: Jan  1 00:00:00 1970 GMT
            Not After : Jun 24 21:18:00 2033 GMT
        Subject: CN=signed
        Subject Public Key Info:
            Public Key Algorithm: rsaEncryption
                Public-Key: (2048 bit)
                Modulus:
                    00:8e:3c:2d:0d:df:a2:22:72:23:7b:71:32:48:34:
                    e7:8e:09:7d:ef:da:b3:d6:b9:c7:7b:83:21:07:f0:
                    1c:ec:a9:80:a1:28:cb:9d:7f:ff:95:d8:c0:06:27:
                    ee:24:ce:85:3e:4d:3c:5a:d1:fe:42:b9:89:b2:a3:
                    4c:ff:55:6a:8c:d4:1f:66:79:e4:b9:e2:a0:7b:16:
                    09:57:98:46:76:c6:ef:5b:69:7c:99:39:ee:e7:39:
                    cf:09:ca:c6:05:da:fe:9b:0f:c9:0c:27:a8:5a:bd:
                    e7:71:e5:e1:16:1a:3e:ec:ea:78:82:4d:da:db:63:
                    3b:96:6f:f6:21:25:7c:28:b8:a6:7a:de:19:a2:1d:
                    1d:95:5f:f8:16:3d:11:3c:c6:59:88:dc:e5:52:70:
                    e6:ae:f8:ba:9a:7b:7a:07:c4:d1:cb:7b:2e:4f:5b:
                    28:40:ca:6f:88:62:e4:2b:2c:a2:65:01:f9:68:81:
                    2b:bf:b0:41:90:8f:2f:09:24:51:9a:a7:77:cb:a4:
                    6a:a6:52:12:0f:1d:35:10:c5:05:02:cf:7f:c6:08:
                    39:bf:2c:a7:90:0b:1b:5e:04:30:95:21:3c:e4:2e:
                    c5:98:a4:d3:b7:2d:9a:77:3b:8a:75:11:9c:a6:d8:
                    f5:b7:6f:17:93:18:22:9b:50:fa:e5:b3:e7:be:94:
                    14:c3
                Exponent: 65537 (0x10001)
    Signature Algorithm: sha256WithRSAEncryption
    Signature Value:
        54:ba:cd:b4:a4:c0:c8:be:3b:bc:f1:4b:ac:f4:25:50:0f:bb:
        ed:95:f5:fa:c7:09:95:47:9a:26:40:36:31:99:a9:31:ed:30:
        4c:58:64:66:77:03:3e:e8:9c:9a:af:98:26:41:c2:4c:0a:48:
        36:f9:fb:95:68:d1:ce:3e:3d:1c:05:dd:9e:b5:91:3a:15:e5:
        99:49:5a:16:94:37:10:6e:0d:c5:8e:86:ba:08:44:01:e6:5a:
        a2:4a:46:2c:03:8a:65:86:b1:04:78:d7:0d:fc:94:a2:ba:96:
        fa:a7:fa:9f:e7:02:91:40:01:54:b2:49:1c:80:33:9d:82:d7:
        61:0c:b7:0b:50:f7:bf:46:89:de:c7:c8:c4:ae:c7:41:0d:2b:
        c5:f7:77:b5:a0:b4:cc:79:87:1a:db:8a:a1:38:09:44:b7:9c:
        cf:5e:4f:4e:0a:55:2d:55:2c:52:94:d7:08:c5:51:9d:1c:1d:
        7a:8f:fe:2a:62:73:2d:9b:4d:96:66:fb:67:7a:dc:a1:ed:d3:
        ce:b4:a1:99:f2:59:d8:2e:54:4b:83:6d:a8:47:10:57:ad:dc:
        ea:ea:9e:db:03:71:46:8a:6a:43:16:31:6d:55:ff:70:0d:2c:
        eb:48:fa:65:1b:69:d4:df:ad:70:2a:af:6f:d3:dd:96:87:0a:
        1a:78:0a:ab
-----BEGIN CERTIFICATE-----
MIICqTCCAZGgAwIBAgIBDTANBgkqhkiG9w0BAQsFADAfMR0wGwYDVQQDDBRUZXN0
IENBIFN1YmF1dGhvcml0eTAeFw03MDAxMDEwMDAwMDBaFw0zMzA2MjQyMTE4MDBa
MBExDzANBgNVBAMMBnNpZ25lZDCCASIwDQYJKoZIhvcNAQEBBQADggEPADCCAQoC
ggEBAI48LQ3foiJyI3txMkg0544Jfe/as9a5x3uDIQfwHOypgKEoy51//5XYwAYn
7iTOhT5NPFrR/kK5ibKjTP9VaozUH2Z55LnioHsWCVeYRnbG71tpfJk57uc5zwnK
xgXa/psPyQwnqFq953Hl4RYaPuzqeIJN2ttjO5Zv9iElfCi4pnreGaIdHZVf+BY9
ETzGWYjc5VJw5q74upp7egfE0ct7Lk9bKEDKb4hi5CssomUB+WiBK7+wQZCPLwkk
UZqnd8ukaqZSEg8dNRDFBQLPf8YIOb8sp5ALG14EMJUhPOQuxZik07ctmnc7inUR
nKbY9bdvF5MYIptQ+uWz576UFMMCAwEAATANBgkqhkiG9w0BAQsFAAOCAQEAVLrN
tKTAyL47vPFLrPQlUA+77ZX1+scJlUeaJkA2MZmpMe0wTFhkZncDPuicmq+YJkHC
TApINvn7lWjRzj49HAXdnrWROhXlmUlaFpQ3EG4NxY6GughEAeZaokpGLAOKZYax
BHjXDfyUorqW+qf6n+cCkUABVLJJHIAznYLXYQy3C1D3v0aJ3sfIxK7HQQ0rxfd3
taC0zHmHGtuKoTgJRLecz15PTgpVLVUsUpTXCMVRnRwdeo/+KmJzLZtNlmb7Z3rc
oe3TzrShmfJZ2C5US4NtqEcQV63c6uqe2wNxRopqQxYxbVX/cA0s60j6ZRtp1N+t
cCqvb9PdlocKGngKqw==
-----END CERTIFICATE-----
