Certificate:
    Data:
        Version: 3 (0x2)
        Serial Number: 8 (0x8)
    Signature Algorithm: sha256WithRSAEncryption
        Issuer: CN=Test CA Subauthority
        Validity
            Not Before: Jan  1 00:00:00 1970 GMT
            Not After : Mar  9 21:35:53 2029 GMT
        Subject: CN=signed
        Subject Public Key Info:
            Public Key Algorithm: rsaEncryption
                Public-Key: (1024 bit)
                Modulus:
                    00:c8:59:04:8a:ae:1e:28:41:59:f9:0d:58:9c:11:
                    27:30:76:f1:de:37:56:de:be:28:e2:79:4a:d0:c3:
                    6f:73:c2:fc:77:3d:44:4b:42:aa:0e:02:43:c6:5f:
                    52:33:a5:11:8e:65:c0:53:e8:3d:f9:a2:16:7d:1b:
                    6c:b9:16:9d:8f:5d:a2:f8:c6:be:58:cc:4e:51:28:
                    d6:3c:bf:9a:01:e8:b2:9d:d5:75:3c:27:6e:fa:81:
                    e4:d5:0d:15:af:28:d2:0c:91:36:41:eb:62:32:95:
                    65:e8:48:1c:b3:f6:de:bf:35:cd:8f:d3:74:71:d4:
                    d3:19:4c:7b:42:04:bc:66:43
                Exponent: 65537 (0x10001)
    Signature Algorithm: sha256WithRSAEncryption
         8b:30:32:a3:ce:74:8a:49:55:b0:c9:9d:47:b0:aa:9e:0c:8f:
         b0:af:ef:e9:26:41:b3:bf:cb:dc:89:2a:fc:58:28:10:f8:67:
         bd:9e:08:80:c5:77:31:63:29:34:0d:c2:5c:a7:1e:53:60:18:
         d5:7c:88:68:18:f6:79:39:d3:1e:76:23:6a:24:4d:49:72:ed:
         81:fc:9f:c8:08:d1:03:e7:d6:09:9c:be:00:5b:51:56:33:cd:
         22:98:73:ec:2a:9f:1d:7b:32:bb:f5:02:46:98:8c:4e:0e:cd:
         3e:d5:e0:2f:fe:3f:b8:f9:10:ee:da:f1:b4:44:04:21:82:81:
         40:30
-----BEGIN CERTIFICATE-----
MIIBpDCCAQ2gAwIBAgIBCDANBgkqhkiG9w0BAQsFADAfMR0wGwYDVQQDDBRUZXN0
IENBIFN1YmF1dGhvcml0eTAeFw03MDAxMDEwMDAwMDBaFw0yOTAzMDkyMTM1NTNa
MBExDzANBgNVBAMMBnNpZ25lZDCBnzANBgkqhkiG9w0BAQEFAAOBjQAwgYkCgYEA
yFkEiq4eKEFZ+Q1YnBEnMHbx3jdW3r4o4nlK0MNvc8L8dz1ES0KqDgJDxl9SM6UR
jmXAU+g9+aIWfRtsuRadj12i+Ma+WMxOUSjWPL+aAeiyndV1PCdu+oHk1Q0VryjS
DJE2QetiMpVl6Egcs/bevzXNj9N0cdTTGUx7QgS8ZkMCAwEAATANBgkqhkiG9w0B
AQsFAAOBgQCLMDKjznSKSVWwyZ1HsKqeDI+wr+/pJkGzv8vciSr8WCgQ+Ge9ngiA
xXcxYyk0DcJcpx5TYBjVfIhoGPZ5OdMediNqJE1Jcu2B/J/ICNED59YJnL4AW1FW
M80imHPsKp8dezK79QJGmIxODs0+1eAv/j+4+RDu2vG0RAQhgoFAMA==
-----END CERTIFICATE-----
