Certificate:
    Data:
        Version: 3 (0x2)
        Serial Number: 11 (0xb)
        Signature Algorithm: sha256WithRSAEncryption
        Issuer: CN=Test CA Subauthority
        Validity
            Not Before: Jan  1 00:00:00 1970 GMT
            Not After : Apr 18 18:46:23 2031 GMT
        Subject: CN=signed
        Subject Public Key Info:
            Public Key Algorithm: rsaEncryption
                RSA Public-Key: (2048 bit)
                Modulus:
                    00:cb:ce:cb:7b:df:9b:4a:d7:f5:72:a6:a7:a0:04:
                    d9:8b:16:b9:47:9f:50:27:d8:0a:bf:cb:47:d3:54:
                    ae:bc:68:54:78:cf:fb:cd:2f:ae:b0:9b:48:c1:9f:
                    3b:87:d6:86:ad:99:fb:ff:4a:dd:2f:cc:3a:bc:6f:
                    bd:02:65:6f:87:de:f6:9b:8b:96:1a:2c:4d:30:89:
                    8b:e4:87:56:b0:5b:83:d7:98:5a:b9:9c:77:15:75:
                    50:ed:7d:07:fe:2b:83:3d:43:13:6f:fd:78:71:d1:
                    e6:47:52:8e:b8:d1:ac:88:f4:d9:76:3e:b1:df:d9:
                    0c:de:5f:a8:21:51:62:35:d0:00:d0:a8:72:73:f3:
                    b0:8b:c6:94:fe:b2:11:96:d3:de:ba:11:9f:69:1f:
                    15:e5:2f:8c:ce:8c:aa:ec:7d:f3:57:d6:db:9e:f8:
                    5f:1f:43:e2:42:1b:31:a5:46:e3:ac:c0:f8:4f:e1:
                    6a:f5:39:2e:d3:1a:a4:3b:36:72:f5:9f:eb:33:cb:
                    3d:8a:26:aa:92:ca:67:83:9d:40:b1:10:3c:be:15:
                    1c:7a:49:74:b8:48:0c:55:e3:8c:ce:25:e3:c4:65:
                    3f:cb:f9:fa:09:b7:2f:c7:6e:b5:ba:35:56:b2:92:
                    7a:be:69:1b:aa:08:31:24:80:f1:68:6d:76:b1:d0:
                    5b:83
                Exponent: 65537 (0x10001)
    Signature Algorithm: sha256WithRSAEncryption
         78:3c:51:49:d1:81:dd:c9:e0:14:bf:ff:86:44:5b:b6:50:a5:
         ca:8e:27:cc:2a:2d:1e:97:2b:6a:de:04:e7:f6:b3:d1:61:bb:
         63:c9:2b:60:0e:ec:f6:bd:7f:84:77:85:62:b8:b8:bf:a0:63:
         85:56:b5:8b:7b:8a:01:f5:31:f2:5d:82:df:ef:2b:69:a5:bd:
         c0:d8:61:7f:28:e9:cb:7f:18:af:77:8e:af:f3:53:dd:bc:aa:
         cb:74:8f:e8:f2:26:e7:d9:8b:bc:de:58:b6:b8:da:e2:1d:03:
         ca:7a:3e:b0:1c:9d:05:9c:04:11:84:94:f4:df:36:04:61:8d:
         88:f7:ce:3d:9a:96:7c:1b:10:d3:85:e5:84:ab:59:b1:b6:5b:
         96:7e:93:c6:fb:87:a4:00:c1:8a:e3:6b:47:4b:fd:c1:4e:1a:
         1c:f7:73:e3:69:eb:4a:71:c9:7a:11:4a:ec:3a:d0:d2:fc:a4:
         41:38:27:cd:51:92:8c:1a:c4:a3:61:21:eb:e1:24:5d:5b:08:
         da:6c:0d:04:37:c3:7c:26:fd:22:c1:38:ff:d9:1e:01:f6:a2:
         8a:37:de:bb:e2:59:6e:2d:40:e2:81:83:3a:2e:6d:1b:99:be:
         1e:4b:4f:f8:c1:ee:97:81:59:39:b8:6a:3b:aa:99:5f:2c:86:
         65:47:bc:10
-----BEGIN CERTIFICATE-----
MIICqTCCAZGgAwIBAgIBCzANBgkqhkiG9w0BAQsFADAfMR0wGwYDVQQDDBRUZXN0
IENBIFN1YmF1dGhvcml0eTAeFw03MDAxMDEwMDAwMDBaFw0zMTA0MTgxODQ2MjNa
MBExDzANBgNVBAMMBnNpZ25lZDCCASIwDQYJKoZIhvcNAQEBBQADggEPADCCAQoC
ggEBAMvOy3vfm0rX9XKmp6AE2YsWuUefUCfYCr/LR9NUrrxoVHjP+80vrrCbSMGf
O4fWhq2Z+/9K3S/MOrxvvQJlb4fe9puLlhosTTCJi+SHVrBbg9eYWrmcdxV1UO19
B/4rgz1DE2/9eHHR5kdSjrjRrIj02XY+sd/ZDN5fqCFRYjXQANCocnPzsIvGlP6y
EZbT3roRn2kfFeUvjM6Mqux981fW2574Xx9D4kIbMaVG46zA+E/havU5LtMapDs2
cvWf6zPLPYomqpLKZ4OdQLEQPL4VHHpJdLhIDFXjjM4l48RlP8v5+gm3L8dutbo1
VrKSer5pG6oIMSSA8WhtdrHQW4MCAwEAATANBgkqhkiG9w0BAQsFAAOCAQEAeDxR
SdGB3cngFL//hkRbtlClyo4nzCotHpcrat4E5/az0WG7Y8krYA7s9r1/hHeFYri4
v6BjhVa1i3uKAfUx8l2C3+8raaW9wNhhfyjpy38Yr3eOr/NT3byqy3SP6PIm59mL
vN5Ytrja4h0Dyno+sBydBZwEEYSU9N82BGGNiPfOPZqWfBsQ04XlhKtZsbZbln6T
xvuHpADBiuNrR0v9wU4aHPdz42nrSnHJehFK7DrQ0vykQTgnzVGSjBrEo2Eh6+Ek
XVsI2mwNBDfDfCb9IsE4/9keAfaiijfeu+JZbi1A4oGDOi5tG5m+HktP+MHul4FZ
ObhqO6qZXyyGZUe8EA==
-----END CERTIFICATE-----
