Certificate Request:
    Data:
        Version: 3 (0x2)
        Subject: CN=signed
        Subject Public Key Info:
            Public Key Algorithm: rsaEncryption
                RSA Public-Key: (2048 bit)
                Modulus:
                    00:d1:3e:20:3f:c0:5e:64:78:1f:f6:a8:60:c7:c8:
                    0d:7b:a7:c9:c1:f5:7e:c2:76:b7:cc:0f:c2:77:e4:
                    ba:3d:41:81:dc:b3:a1:9a:de:83:6c:80:29:78:17:
                    b9:cf:2b:0e:b5:5e:74:04:e5:c6:ad:66:4a:cf:6f:
                    f8:ec:1c:41:c9:c0:4a:28:74:17:1f:85:1f:11:d2:
                    5a:36:c0:bd:08:a3:72:ba:00:1e:d7:f8:fd:44:23:
                    21:b7:ba:67:7c:fc:c1:5c:ac:fe:ce:d7:72:8b:17:
                    3a:2b:0f:a0:d6:d3:2f:ed:6d:28:e9:00:f7:a4:4d:
                    4a:cd:42:e3:fe:6f:44:7a:cd:69:bb:50:90:51:4d:
                    83:ad:04:5d:91:48:2b:7a:86:29:4d:19:5a:03:98:
                    8c:e9:12:61:99:db:6b:c6:ca:f7:e5:e0:c5:0c:63:
                    fb:d9:d0:f7:7e:ea:e2:38:e5:8e:13:7e:63:6b:7f:
                    26:ff:5e:da:a5:bc:0a:b7:80:c9:58:3e:f5:28:5c:
                    dc:a2:62:56:80:64:30:67:ab:f7:d1:d3:b4:51:61:
                    51:14:a1:8b:82:ae:35:f9:cd:8b:7e:3b:b1:0d:3c:
                    6b:7b:aa:50:53:3b:3f:44:1c:51:3b:91:01:d2:c3:
                    38:31:1a:26:89:ba:8e:58:76:66:fb:4d:02:ff:e6:
                    dd:1d
                Exponent: 65537 (0x10001)
        Attributes:
            a0:00
    Signature Algorithm: sha256WithRSAEncryption
         10:3f:46:8b:31:46:fb:0d:a1:00:4a:1e:3c:27:16:92:29:b7:
         73:a1:2e:69:a0:a3:1b:dc:4c:9f:63:81:ee:02:9b:78:bf:46:
         94:f4:2a:80:03:5a:da:15:51:91:bc:16:27:61:c7:2f:17:15:
         c8:af:6e:87:26:bb:1e:8e:32:92:f8:45:1e:86:f6:f1:eb:17:
         02:11:75:6e:e8:9f:cd:05:d7:43:35:bd:17:42:ef:df:f9:55:
         cc:a3:3f:4c:dd:f1:9b:2f:10:55:a4:d4:cf:9c:e5:af:85:6a:
         98:eb:7d:83:e7:68:af:32:7f:d9:90:d7:ed:62:07:6e:47:13:
         e1:6f:a2:6c:1a:4e:47:7a:f8:10:a9:4e:45:0c:64:39:b5:8d:
         6f:ff:e6:b0:76:b0:b3:79:4b:a1:fa:26:96:63:7c:c5:58:c9:
         f9:46:bc:ab:0d:a8:be:e5:c0:29:f8:d1:ca:bc:ca:0b:8e:90:
         8d:68:50:92:79:30:51:da:58:68:b2:16:1d:e0:1c:e1:1e:f4:
         4b:aa:8e:14:ac:fc:33:59:c4:23:2f:85:6d:6e:76:cf:fe:04:
         3d:45:d1:62:e4:68:c5:ff:25:f3:6e:cb:10:21:cc:13:84:e9:
         e5:53:c2:ca:b5:34:43:38:14:ec:b8:66:3d:69:1c:bc:cb:82:
         b5:d0:84:ac
-----BEGIN CERTIFICATE REQUEST-----
MIICVjCCAT4CAQIwETEPMA0GA1UEAwwGc2lnbmVkMIIBIjANBgkqhkiG9w0BAQEF
AAOCAQ8AMIIBCgKCAQEA0T4gP8BeZHgf9qhgx8gNe6fJwfV+wna3zA/Cd+S6PUGB
3LOhmt6DbIApeBe5zysOtV50BOXGrWZKz2/47BxBycBKKHQXH4UfEdJaNsC9CKNy
ugAe1/j9RCMht7pnfPzBXKz+ztdyixc6Kw+g1tMv7W0o6QD3pE1KzULj/m9Ees1p
u1CQUU2DrQRdkUgreoYpTRlaA5iM6RJhmdtrxsr35eDFDGP72dD3furiOOWOE35j
a38m/17apbwKt4DJWD71KFzcomJWgGQwZ6v30dO0UWFRFKGLgq41+c2LfjuxDTxr
e6pQUzs/RBxRO5EB0sM4MRomibqOWHZm+00C/+bdHQIDAQABoAAwDQYJKoZIhvcN
AQELBQADggEBABA/RosxRvsNoQBKHjwnFpIpt3OhLmmgoxvcTJ9jge4Cm3i/RpT0
KoADWtoVUZG8Fidhxy8XFcivbocmux6OMpL4RR6G9vHrFwIRdW7on80F10M1vRdC
79/5VcyjP0zd8ZsvEFWk1M+c5a+FapjrfYPnaK8yf9mQ1+1iB25HE+FvomwaTkd6
+BCpTkUMZDm1jW//5rB2sLN5S6H6JpZjfMVYyflGvKsNqL7lwCn40cq8yguOkI1o
UJJ5MFHaWGiyFh3gHOEe9EuqjhSs/DNZxCMvhW1uds/+BD1F0WLkaMX/JfNuyxAh
zBOE6eVTwsq1NEM4FOy4Zj1pHLzLgrXQhKw=
-----END CERTIFICATE REQUEST-----
