Certificate:
    Data:
        Version: 3 (0x2)
        Serial Number: 6 (0x6)
    Signature Algorithm: sha256WithRSAEncryption
        Issuer: CN=Test CA Subauthority
        Validity
            Not Before: Jan  1 00:00:00 1970 GMT
            Not After : Mar  3 20:26:24 2029 GMT
        Subject: CN=signed
        Subject Public Key Info:
            Public Key Algorithm: rsaEncryption
                Public-Key: (1024 bit)
                Modulus:
                    00:b1:3b:7a:11:44:2b:82:f8:64:3b:62:c5:e6:b5:
                    bd:11:0e:ad:9b:44:fe:4d:3e:a1:ea:a1:5a:59:24:
                    83:b3:e9:fa:6f:ac:99:7a:d2:03:cb:8c:93:7f:7c:
                    d1:d4:d6:ce:c7:6e:8e:45:42:00:65:bd:a6:5e:29:
                    05:4b:a7:f3:ae:c5:09:e6:f7:48:f4:00:8a:a1:12:
                    3b:01:d9:08:e9:97:ef:10:10:42:94:ae:0d:20:55:
                    f0:22:ad:bd:a9:e1:af:29:83:ba:36:80:e9:33:17:
                    44:71:ae:ce:14:4d:61:3c:89:d0:b7:b2:9f:a2:5a:
                    bf:bc:cd:16:68:a5:59:0d:93
                Exponent: 65537 (0x10001)
    Signature Algorithm: sha256WithRSAEncryption
         3a:d9:82:61:3b:94:fb:af:21:f5:4d:64:03:0d:b8:ef:eb:1d:
         2a:50:c2:70:1b:e9:c7:7f:72:e1:9d:f5:0d:4e:fa:e5:10:01:
         35:ac:1f:74:01:09:e4:f6:cb:6b:8c:5f:12:47:a1:f2:44:3f:
         a4:b2:88:8f:1a:c3:35:4c:89:10:ef:4d:ca:0d:ba:37:ef:3b:
         0d:c1:65:9d:68:67:88:32:fd:dc:56:8a:2e:ce:ca:34:4c:49:
         f0:13:7b:fa:e5:a1:f5:1c:28:75:09:e1:41:ef:17:55:4e:0c:
         ba:2f:85:a1:1a:99:ac:7a:e8:c0:c5:a3:dd:d3:3a:ca:98:16:
         17:26
-----BEGIN CERTIFICATE-----
MIIBpDCCAQ2gAwIBAgIBBjANBgkqhkiG9w0BAQsFADAfMR0wGwYDVQQDDBRUZXN0
IENBIFN1YmF1dGhvcml0eTAeFw03MDAxMDEwMDAwMDBaFw0yOTAzMDMyMDI2MjRa
MBExDzANBgNVBAMMBnNpZ25lZDCBnzANBgkqhkiG9w0BAQEFAAOBjQAwgYkCgYEA
sTt6EUQrgvhkO2LF5rW9EQ6tm0T+TT6h6qFaWSSDs+n6b6yZetIDy4yTf3zR1NbO
x26ORUIAZb2mXikFS6fzrsUJ5vdI9ACKoRI7AdkI6ZfvEBBClK4NIFXwIq29qeGv
KYO6NoDpMxdEca7OFE1hPInQt7Kfolq/vM0WaKVZDZMCAwEAATANBgkqhkiG9w0B
AQsFAAOBgQA62YJhO5T7ryH1TWQDDbjv6x0qUMJwG+nHf3LhnfUNTvrlEAE1rB90
AQnk9strjF8SR6HyRD+ksoiPGsM1TIkQ703KDbo37zsNwWWdaGeIMv3cVoouzso0
TEnwE3v65aH1HCh1CeFB7xdVTgy6L4WhGpmseujAxaPd0zrKmBYXJg==
-----END CERTIFICATE-----
