Certificate Request:
    Data:
        Version: 3 (0x2)
        Subject: CN=signed
        Subject Public Key Info:
            Public Key Algorithm: rsaEncryption
                RSA Public-Key: (2048 bit)
                Modulus:
                    00:a8:3e:27:31:e2:33:8e:51:90:06:55:5b:ee:bc:
                    8b:a2:b3:53:74:7d:06:6d:43:cf:12:57:46:fc:56:
                    79:f0:cd:af:d1:dc:19:b3:3c:54:39:85:b4:6a:1e:
                    a3:0f:f4:ee:e7:8f:1c:c9:99:79:5d:92:b5:7e:a6:
                    49:1a:ec:e5:f4:12:8e:6d:57:9a:86:29:b2:38:42:
                    1e:a9:c7:73:b1:a9:e3:9c:fc:5c:f9:51:a5:47:ce:
                    45:af:21:20:d8:45:40:fe:a2:bf:5e:77:34:eb:6f:
                    17:bc:fd:06:33:2a:6f:64:6c:61:03:76:ad:dd:e4:
                    11:02:3f:48:b2:39:94:cc:da:30:41:36:8e:be:24:
                    74:b2:45:60:ba:59:0e:b5:1d:fd:0f:e8:97:47:61:
                    c4:9d:88:ef:09:69:01:d7:7e:cd:1b:ad:ff:d2:19:
                    7d:c8:35:cf:72:55:cd:1e:68:58:8a:b2:78:9c:76:
                    b2:2c:8e:34:3d:91:9c:c2:d8:fd:21:b3:bd:72:43:
                    85:dd:6e:4e:0a:47:92:0f:e4:f9:e6:43:20:f6:25:
                    22:7e:e3:94:70:a8:02:2e:f6:0b:e1:2d:22:bf:94:
                    00:4e:31:23:83:79:00:70:28:a0:b6:32:1b:ee:c8:
                    d4:ff:16:d7:1a:17:41:38:c0:5c:ed:18:de:d7:1a:
                    f4:01
                Exponent: 65537 (0x10001)
        Attributes:
            a0:00
    Signature Algorithm: sha256WithRSAEncryption
         17:09:e2:b8:c6:d5:1e:44:60:86:bf:8b:7c:b9:7a:43:55:76:
         38:32:fa:9d:ad:0a:6b:ea:56:9e:4d:45:5d:58:ae:08:93:20:
         d6:79:99:20:7e:88:6a:bb:14:b6:62:a3:e1:2a:82:a6:2e:9d:
         1a:9e:7a:86:36:d0:a6:b2:b6:43:24:7f:4f:b9:4a:e3:50:e4:
         c6:d6:ac:85:ce:a8:e6:07:d1:44:b3:b8:e8:b4:54:79:68:4f:
         36:29:b3:f8:e2:d0:05:40:d9:ca:05:6b:16:56:c9:6f:9f:63:
         ff:99:fc:e0:69:b7:e3:cd:93:4c:1d:29:8c:23:40:bd:0b:eb:
         fd:2d:88:fc:28:4e:77:76:6b:2c:85:ca:5c:61:31:9e:50:f0:
         7e:41:ab:c3:5e:73:e5:1c:3e:03:52:5a:07:12:d9:b8:6d:5e:
         af:f4:6a:5c:e6:f5:01:8a:66:6e:bc:4a:f0:fb:b3:0a:48:5a:
         6d:e6:ef:aa:ea:22:12:6b:c5:70:28:ac:8e:57:9e:54:9a:27:
         6a:37:d7:8f:d8:0e:7d:c8:38:1d:de:d6:e0:3a:c6:81:2d:f9:
         bb:f4:ae:4e:ad:c2:b2:e3:90:8f:e0:24:98:b3:ea:ef:0d:95:
         2e:3c:e3:65:b4:d8:e3:99:10:80:4f:35:61:df:7d:77:c3:4f:
         ab:ff:5b:ed
-----BEGIN CERTIFICATE REQUEST-----
MIICVjCCAT4CAQIwETEPMA0GA1UEAwwGc2lnbmVkMIIBIjANBgkqhkiG9w0BAQEF
AAOCAQ8AMIIBCgKCAQEAqD4nMeIzjlGQBlVb7ryLorNTdH0GbUPPEldG/FZ58M2v
0dwZszxUOYW0ah6jD/Tu548cyZl5XZK1fqZJGuzl9BKObVeahimyOEIeqcdzsanj
nPxc+VGlR85FryEg2EVA/qK/Xnc0628XvP0GMypvZGxhA3at3eQRAj9IsjmUzNow
QTaOviR0skVgulkOtR39D+iXR2HEnYjvCWkB137NG63/0hl9yDXPclXNHmhYirJ4
nHayLI40PZGcwtj9IbO9ckOF3W5OCkeSD+T55kMg9iUifuOUcKgCLvYL4S0iv5QA
TjEjg3kAcCigtjIb7sjU/xbXGhdBOMBc7Rje1xr0AQIDAQABoAAwDQYJKoZIhvcN
AQELBQADggEBABcJ4rjG1R5EYIa/i3y5ekNVdjgy+p2tCmvqVp5NRV1YrgiTINZ5
mSB+iGq7FLZio+EqgqYunRqeeoY20KaytkMkf0+5SuNQ5MbWrIXOqOYH0USzuOi0
VHloTzYps/ji0AVA2coFaxZWyW+fY/+Z/OBpt+PNk0wdKYwjQL0L6/0tiPwoTnd2
ayyFylxhMZ5Q8H5Bq8Nec+UcPgNSWgcS2bhtXq/0alzm9QGKZm68SvD7swpIWm3m
76rqIhJrxXAorI5XnlSaJ2o314/YDn3IOB3e1uA6xoEt+bv0rk6twrLjkI/gJJiz
6u8NlS4842W02OOZEIBPNWHffXfDT6v/W+0=
-----END CERTIFICATE REQUEST-----
