Certificate Request:
    Data:
        Version: 3 (0x2)
        Subject: CN=signed
        Subject Public Key Info:
            Public Key Algorithm: rsaEncryption
                Public-Key: (1024 bit)
                Modulus:
                    00:e9:53:65:ee:3a:eb:2d:ab:c3:23:22:68:70:25:
                    e8:c3:d9:1a:c6:42:82:79:98:38:75:65:39:7b:b8:
                    67:ba:ae:5b:f0:61:05:c5:a5:ff:b2:63:b3:ce:50:
                    30:84:61:44:ab:18:e1:85:19:c1:fa:01:a5:79:00:
                    b7:ab:99:e5:36:7f:37:6e:c9:9e:f2:98:2a:a1:54:
                    eb:b0:20:37:b6:97:08:62:bc:27:31:b2:af:da:59:
                    47:e9:92:f3:ee:40:2a:75:fe:ef:ba:3a:22:70:65:
                    32:be:4b:fb:bd:75:87:5c:3f:2f:03:cd:b6:e4:3e:
                    4e:af:a3:f4:2a:30:17:99:6d
                Exponent: 65537 (0x10001)
        Attributes:
            a0:00
    Signature Algorithm: sha256WithRSAEncryption
         89:dd:58:fe:dc:45:c2:52:a1:58:16:e3:59:a1:45:ab:5b:1c:
         ae:a6:ca:63:f2:95:82:41:09:71:68:26:b3:6d:20:03:9c:c5:
         f3:23:54:b9:a2:8a:66:3f:68:a7:c2:4a:16:81:3d:93:c5:c4:
         10:2c:1d:20:59:9d:7c:b2:b1:1a:62:72:fd:4d:90:86:b7:8e:
         ab:2e:05:b1:52:cb:4e:38:f0:85:e8:58:5f:64:a8:f4:5c:b3:
         73:75:f5:bb:76:4f:93:c1:8c:e6:23:cf:e9:ff:c0:22:8f:a3:
         09:a8:57:51:31:9b:7d:ef:97:b6:70:2e:90:d5:40:33:ca:37:
         d3:b5
-----BEGIN CERTIFICATE REQUEST-----
MIIBUDCBugIBAjARMQ8wDQYDVQQDDAZzaWduZWQwgZ8wDQYJKoZIhvcNAQEBBQAD
gY0AMIGJAoGBAOlTZe466y2rwyMiaHAl6MPZGsZCgnmYOHVlOXu4Z7quW/BhBcWl
/7Jjs85QMIRhRKsY4YUZwfoBpXkAt6uZ5TZ/N27JnvKYKqFU67AgN7aXCGK8JzGy
r9pZR+mS8+5AKnX+77o6InBlMr5L+711h1w/LwPNtuQ+Tq+j9CowF5ltAgMBAAGg
ADANBgkqhkiG9w0BAQsFAAOBgQCJ3Vj+3EXCUqFYFuNZoUWrWxyupspj8pWCQQlx
aCazbSADnMXzI1S5oopmP2inwkoWgT2TxcQQLB0gWZ18srEaYnL9TZCGt46rLgWx
UstOOPCF6FhfZKj0XLNzdfW7dk+TwYzmI8/p/8Aij6MJqFdRMZt975e2cC6Q1UAz
yjfTtQ==
-----END CERTIFICATE REQUEST-----
