Certificate:
    Data:
        Version: 3 (0x2)
        Serial Number: 12 (0xc)
        Signature Algorithm: sha256WithRSAEncryption
        Issuer: CN=Test CA Subauthority
        Validity
            Not Before: Jan  1 00:00:00 1970 GMT
            Not After : Jun 15 01:19:37 2031 GMT
        Subject: CN=signed
        Subject Public Key Info:
            Public Key Algorithm: rsaEncryption
                RSA Public-Key: (2048 bit)
                Modulus:
                    00:e5:d1:41:c2:76:00:ff:d2:26:73:88:6b:06:e8:
                    4e:6e:f6:76:b0:94:bf:71:b4:26:1b:1d:05:e9:ea:
                    b2:e9:8b:cf:81:8d:93:3e:82:27:a0:ef:61:b6:78:
                    e3:5a:70:58:b0:56:ed:2f:3c:fd:80:67:e7:a7:49:
                    39:c0:3f:a8:f1:15:86:e3:b6:9b:d8:5d:af:e3:9c:
                    b1:e3:dc:4a:81:60:60:f8:7d:ef:01:4e:84:5c:64:
                    64:35:bb:52:8f:d9:d0:c4:74:90:a4:27:ab:0d:2e:
                    df:1c:1d:9e:62:43:4e:f5:e4:04:a7:9e:45:6d:61:
                    11:e5:ff:9d:fe:8a:5e:55:19:96:ed:de:a4:a0:f5:
                    44:ea:14:06:af:8b:eb:62:c6:f5:78:27:36:3b:e6:
                    9d:fc:65:b3:57:5a:52:b1:e9:f6:4a:13:a4:fa:8a:
                    dc:60:8a:a3:8e:15:db:24:8c:61:03:62:ea:6a:a4:
                    b6:47:82:8d:34:48:5b:0e:bb:0f:5d:3e:9d:05:38:
                    f8:6c:da:01:45:66:19:bc:a9:a1:5d:f5:42:1d:12:
                    5e:b1:93:12:db:87:19:06:35:b6:39:18:b9:d1:c8:
                    dc:9e:3f:d6:28:b1:07:cf:e0:af:bc:19:bd:50:e2:
                    0f:f6:36:77:a9:84:b7:08:92:f4:47:9a:f5:ea:73:
                    46:c5
                Exponent: 65537 (0x10001)
    Signature Algorithm: sha256WithRSAEncryption
         4c:37:72:d9:ee:d3:8a:75:a6:f8:36:01:50:95:e6:75:a7:b0:
         67:14:a6:88:ab:e3:a3:ea:c4:5c:20:2b:12:e4:8a:fb:9d:88:
         33:1e:17:dc:91:bc:4a:dc:45:b9:ac:88:67:db:ba:12:ec:4d:
         9b:b1:58:87:ef:af:b6:be:1a:4b:44:0e:7c:70:68:50:90:93:
         db:a2:ee:73:2b:75:cc:27:8f:60:11:15:c6:19:7b:12:d3:43:
         68:63:02:d3:2c:10:37:2a:f1:fe:6f:46:45:d4:81:15:0b:93:
         0d:ae:6f:23:4f:71:e8:42:45:f7:3d:f8:56:66:79:91:06:3b:
         01:71:f6:1f:dd:e7:59:a1:c5:48:35:a4:80:b6:40:14:20:47:
         85:21:92:3a:83:19:ba:bd:b5:ab:ab:92:c6:a7:f2:f0:e6:d6:
         00:fd:ec:91:34:46:72:bf:57:ec:c0:d8:68:4c:19:89:6d:4f:
         a2:51:e8:a6:6f:b1:a1:ff:b0:55:46:b7:cc:51:39:38:ba:c2:
         22:b2:57:19:02:f4:00:92:bc:ad:2b:e3:43:2b:1a:f2:36:55:
         1f:c7:97:4b:0f:65:8e:33:00:e8:ed:44:56:82:b5:8b:57:dc:
         bd:a6:c5:61:86:49:9a:82:a5:e5:8c:01:62:9d:18:cb:9e:05:
         d3:03:51:50
-----BEGIN CERTIFICATE-----
MIICqTCCAZGgAwIBAgIBDDANBgkqhkiG9w0BAQsFADAfMR0wGwYDVQQDDBRUZXN0
IENBIFN1YmF1dGhvcml0eTAeFw03MDAxMDEwMDAwMDBaFw0zMTA2MTUwMTE5Mzda
MBExDzANBgNVBAMMBnNpZ25lZDCCASIwDQYJKoZIhvcNAQEBBQADggEPADCCAQoC
ggEBAOXRQcJ2AP/SJnOIawboTm72drCUv3G0JhsdBenqsumLz4GNkz6CJ6DvYbZ4
41pwWLBW7S88/YBn56dJOcA/qPEVhuO2m9hdr+OcsePcSoFgYPh97wFOhFxkZDW7
Uo/Z0MR0kKQnqw0u3xwdnmJDTvXkBKeeRW1hEeX/nf6KXlUZlu3epKD1ROoUBq+L
62LG9XgnNjvmnfxls1daUrHp9koTpPqK3GCKo44V2ySMYQNi6mqktkeCjTRIWw67
D10+nQU4+GzaAUVmGbypoV31Qh0SXrGTEtuHGQY1tjkYudHI3J4/1iixB8/gr7wZ
vVDiD/Y2d6mEtwiS9Eea9epzRsUCAwEAATANBgkqhkiG9w0BAQsFAAOCAQEATDdy
2e7TinWm+DYBUJXmdaewZxSmiKvjo+rEXCArEuSK+52IMx4X3JG8StxFuayIZ9u6
EuxNm7FYh++vtr4aS0QOfHBoUJCT26Lucyt1zCePYBEVxhl7EtNDaGMC0ywQNyrx
/m9GRdSBFQuTDa5vI09x6EJF9z34VmZ5kQY7AXH2H93nWaHFSDWkgLZAFCBHhSGS
OoMZur21q6uSxqfy8ObWAP3skTRGcr9X7MDYaEwZiW1PolHopm+xof+wVUa3zFE5
OLrCIrJXGQL0AJK8rSvjQysa8jZVH8eXSw9ljjMA6O1EVoK1i1fcvabFYYZJmoKl
5YwBYp0Yy54F0wNRUA==
-----END CERTIFICATE-----
