Certificate Request:
    Data:
        Version: Unknown (2)
        Subject: CN=signed
        Subject Public Key Info:
            Public Key Algorithm: rsaEncryption
                Public-Key: (2048 bit)
                Modulus:
                    00:95:70:64:7f:b5:26:4a:bc:50:e9:46:d1:d9:15:
                    25:5f:9d:85:68:7b:16:eb:25:ac:84:f7:1d:96:a6:
                    11:c3:cf:11:94:e4:5b:e5:b4:fe:d3:84:21:18:10:
                    82:16:71:5d:1d:b8:7f:55:1b:99:65:57:9d:25:ea:
                    e6:75:14:7e:92:ca:d9:2f:14:4b:89:b7:0a:fc:11:
                    6e:76:5e:30:bc:da:f1:4d:a2:7b:53:aa:21:87:d2:
                    25:f4:b4:08:d4:3d:a4:5e:f5:88:70:24:3f:ef:5d:
                    9f:31:41:30:d0:71:5c:af:fc:be:3a:bc:d2:4f:a3:
                    8d:5d:71:8c:46:67:51:6d:09:ad:3e:5b:86:4c:42:
                    83:e4:45:35:37:3e:3e:39:52:8a:ea:f1:27:53:6a:
                    ee:2a:a2:ed:de:e0:63:5b:1d:8c:a1:9c:7e:24:4f:
                    fe:6e:1f:0d:d3:04:df:ff:42:d5:1a:9d:e1:89:50:
                    ff:80:c5:1a:23:33:3c:34:8c:91:74:09:99:a1:dc:
                    a2:16:4f:80:8a:cd:a7:38:ca:fc:ea:b2:af:b7:01:
                    c6:1b:3a:c6:da:ef:86:72:f9:72:7b:0b:fb:58:e2:
                    b7:61:9a:ae:20:f1:37:77:d5:f6:f1:ab:19:45:c1:
                    6e:f4:63:4b:78:c1:71:02:59:0e:e6:4d:5e:1f:88:
                    1a:69
                Exponent: 65537 (0x10001)
        Attributes:
            (none)
            Requested Extensions:
    Signature Algorithm: sha256WithRSAEncryption
    Signature Value:
        ac:48:97:68:71:48:98:58:56:c7:4e:3e:28:10:66:09:67:28:
        b5:e1:09:56:bf:20:76:ea:45:87:2f:48:36:0c:00:1b:4e:5a:
        43:ca:25:a6:59:70:89:8a:19:7b:93:f9:19:9a:a0:29:57:b6:
        eb:37:b5:1e:97:83:67:d8:a4:ee:e7:50:fc:5c:92:ff:0a:20:
        85:f2:5c:82:e4:45:65:e5:9f:1a:e9:9f:24:ce:b6:6a:d4:6a:
        77:da:65:10:e2:9d:03:d1:0e:9f:73:05:80:06:e4:37:99:70:
        f7:a1:ee:8e:f2:6e:ac:ec:b2:0b:89:0c:c5:7d:d2:6b:3b:e4:
        07:70:14:5c:90:3d:27:d6:3d:a6:9f:b4:b8:17:8c:ea:a5:3a:
        ff:6e:6e:bc:98:02:5d:ae:f8:fe:6f:0c:97:62:36:24:bd:74:
        7f:2f:61:8a:76:d2:b3:3e:ee:82:75:b8:c8:8f:41:e7:3a:3b:
        f5:a6:6e:20:0c:f1:ea:2a:ba:17:ba:02:f5:5f:dd:63:06:f1:
        86:ab:c8:8f:b4:85:e0:68:42:b8:86:32:4e:00:49:ca:a4:59:
        b7:4a:87:98:39:d2:21:d1:41:7c:3c:25:ae:97:4d:06:82:93:
        38:6b:9f:b2:d5:96:2f:6f:7b:f0:31:44:be:24:82:48:70:1a:
        6b:5a:ec:e7
-----BEGIN CERTIFICATE REQUEST-----
MIICVjCCAT4CAQIwETEPMA0GA1UEAwwGc2lnbmVkMIIBIjANBgkqhkiG9w0BAQEF
AAOCAQ8AMIIBCgKCAQEAlXBkf7UmSrxQ6UbR2RUlX52FaHsW6yWshPcdlqYRw88R
lORb5bT+04QhGBCCFnFdHbh/VRuZZVedJermdRR+ksrZLxRLibcK/BFudl4wvNrx
TaJ7U6ohh9Il9LQI1D2kXvWIcCQ/712fMUEw0HFcr/y+OrzST6ONXXGMRmdRbQmt
PluGTEKD5EU1Nz4+OVKK6vEnU2ruKqLt3uBjWx2MoZx+JE/+bh8N0wTf/0LVGp3h
iVD/gMUaIzM8NIyRdAmZodyiFk+Ais2nOMr86rKvtwHGGzrG2u+Gcvlyewv7WOK3
YZquIPE3d9X28asZRcFu9GNLeMFxAlkO5k1eH4gaaQIDAQABoAAwDQYJKoZIhvcN
AQELBQADggEBAKxIl2hxSJhYVsdOPigQZglnKLXhCVa/IHbqRYcvSDYMABtOWkPK
JaZZcImKGXuT+RmaoClXtus3tR6Xg2fYpO7nUPxckv8KIIXyXILkRWXlnxrpnyTO
tmrUanfaZRDinQPRDp9zBYAG5DeZcPeh7o7ybqzssguJDMV90ms75AdwFFyQPSfW
PaaftLgXjOqlOv9ubryYAl2u+P5vDJdiNiS9dH8vYYp20rM+7oJ1uMiPQec6O/Wm
biAM8eoquhe6AvVf3WMG8YaryI+0heBoQriGMk4AScqkWbdKh5g50iHRQXw8Ja6X
TQaCkzhrn7LVli9ve/AxRL4kgkhwGmta7Oc=
-----END CERTIFICATE REQUEST-----
