Certificate:
    Data:
        Version: 3 (0x2)
        Serial Number: 13 (0xd)
        Signature Algorithm: sha256WithRSAEncryption
        Issuer: CN=Test CA Subauthority
        Validity
            Not Before: Jan  1 00:00:00 1970 GMT
            Not After : Jan 27 18:43:32 2034 GMT
        Subject: CN=signed
        Subject Public Key Info:
            Public Key Algorithm: rsaEncryption
                RSA Public-Key: (2048 bit)
                Modulus:
                    00:bd:72:c2:5b:1a:e2:a2:27:e6:20:8c:5b:dd:b6:
                    f2:49:66:5e:e0:a2:06:c0:83:01:c7:d3:ea:a5:28:
                    89:1f:0d:11:e4:91:94:9a:23:39:06:b3:24:c3:92:
                    6e:76:9d:f7:cb:76:d7:d2:df:3f:ce:6b:14:02:b8:
                    01:15:5e:86:54:ae:b9:42:d7:4e:e1:ac:2e:65:83:
                    1e:45:dc:93:b5:f1:de:55:97:5d:82:3a:f0:27:dc:
                    1e:fe:4f:c6:c9:a6:4d:f6:5a:9d:dc:ae:1b:09:4c:
                    b7:79:58:c2:e7:6f:81:2d:1a:63:f6:ef:a4:91:83:
                    e0:dc:cb:ac:01:e6:5e:a6:fe:1b:78:7e:51:ad:ec:
                    fd:68:c9:11:de:71:bf:e3:06:0d:fe:36:4b:8f:26:
                    b8:d8:ff:68:41:f6:01:fc:40:a1:0e:30:06:c5:7e:
                    de:f2:e7:99:69:92:88:07:1a:d0:93:ed:85:38:a1:
                    82:8f:6b:3b:8c:a7:62:78:42:3a:54:83:01:45:56:
                    4a:88:fe:1d:68:34:7b:29:6f:39:6b:08:90:f0:6d:
                    50:6e:a8:44:b1:27:2d:c7:51:a3:90:d7:54:26:29:
                    72:a7:c8:33:b7:42:08:1d:48:5f:61:41:aa:f0:b5:
                    86:7c:94:ec:e0:97:d7:11:e2:80:35:35:ba:b0:3b:
                    54:a7
                Exponent: 65537 (0x10001)
    Signature Algorithm: sha256WithRSAEncryption
         54:d4:70:cf:7c:14:90:0e:8c:ad:5b:3d:51:5e:2e:d3:88:f6:
         ba:94:b8:ab:18:6b:7a:87:7c:d7:31:74:1e:0a:11:1b:72:88:
         84:2b:3d:0b:52:38:cd:d8:44:30:e8:0a:e4:15:7a:80:20:9e:
         fd:9c:5e:66:61:71:54:52:38:fd:64:7a:ae:10:93:21:90:94:
         68:fa:13:33:1c:e4:d6:f5:79:81:c3:2c:ec:c2:d2:3f:d6:89:
         40:50:6a:e8:7e:2d:c0:35:f2:77:b7:50:39:95:6c:72:02:d3:
         78:46:de:72:87:29:ff:a7:4b:74:66:f2:15:ac:77:1a:09:46:
         40:19:42:a9:4c:80:2e:d0:4d:d9:84:97:76:5e:dd:38:f1:e7:
         d2:96:b4:89:bb:e4:f6:b2:0a:9f:7d:42:d2:04:3f:ce:8a:53:
         f4:2f:a2:ca:a3:2f:b5:d7:08:d8:8d:32:1c:f9:e4:00:04:56:
         a9:bb:ba:be:70:66:ef:ef:fc:bf:0a:13:b8:59:be:fc:a3:18:
         97:e1:26:55:55:d2:6b:9e:17:4c:78:a1:73:db:bc:26:dd:a1:
         29:94:a2:cc:56:8c:4e:00:2b:6c:66:2f:04:4d:44:37:35:86:
         df:57:95:16:1b:97:bd:12:29:56:77:9f:d5:e1:f3:35:24:d2:
         36:26:d0:3f
-----BEGIN CERTIFICATE-----
MIICqTCCAZGgAwIBAgIBDTANBgkqhkiG9w0BAQsFADAfMR0wGwYDVQQDDBRUZXN0
IENBIFN1YmF1dGhvcml0eTAeFw03MDAxMDEwMDAwMDBaFw0zNDAxMjcxODQzMzJa
MBExDzANBgNVBAMMBnNpZ25lZDCCASIwDQYJKoZIhvcNAQEBBQADggEPADCCAQoC
ggEBAL1ywlsa4qIn5iCMW9228klmXuCiBsCDAcfT6qUoiR8NEeSRlJojOQazJMOS
bnad98t219LfP85rFAK4ARVehlSuuULXTuGsLmWDHkXck7Xx3lWXXYI68CfcHv5P
xsmmTfZandyuGwlMt3lYwudvgS0aY/bvpJGD4NzLrAHmXqb+G3h+Ua3s/WjJEd5x
v+MGDf42S48muNj/aEH2AfxAoQ4wBsV+3vLnmWmSiAca0JPthTihgo9rO4ynYnhC
OlSDAUVWSoj+HWg0eylvOWsIkPBtUG6oRLEnLcdRo5DXVCYpcqfIM7dCCB1IX2FB
qvC1hnyU7OCX1xHigDU1urA7VKcCAwEAATANBgkqhkiG9w0BAQsFAAOCAQEAVNRw
z3wUkA6MrVs9UV4u04j2upS4qxhreod81zF0HgoRG3KIhCs9C1I4zdhEMOgK5BV6
gCCe/ZxeZmFxVFI4/WR6rhCTIZCUaPoTMxzk1vV5gcMs7MLSP9aJQFBq6H4twDXy
d7dQOZVscgLTeEbecocp/6dLdGbyFax3GglGQBlCqUyALtBN2YSXdl7dOPHn0pa0
ibvk9rIKn31C0gQ/zopT9C+iyqMvtdcI2I0yHPnkAARWqbu6vnBm7+/8vwoTuFm+
/KMYl+EmVVXSa54XTHihc9u8Jt2hKZSizFaMTgArbGYvBE1ENzWG31eVFhuXvRIp
Vnef1eHzNSTSNibQPw==
-----END CERTIFICATE-----
