Certificate:
    Data:
        Version: 3 (0x2)
        Serial Number: 1 (0x1)
        Signature Algorithm: sha256WithRSAEncryption
        Issuer: CN=Unknown CA
        Validity
            Not Before: Jan  1 00:00:00 1970 GMT
            Not After : Jun 15 01:19:37 2031 GMT
        Subject: CN=127.0.0.1
        Subject Public Key Info:
            Public Key Algorithm: rsaEncryption
                RSA Public-Key: (2048 bit)
                Modulus:
                    00:b4:5f:1a:9d:71:c7:2d:1b:5d:b7:3a:5d:c7:3c:
                    e9:8f:f4:b3:0d:fa:03:91:f1:60:70:e6:6e:8c:e9:
                    bc:12:6e:ef:f0:fb:e1:7b:7f:bf:54:00:8a:4d:96:
                    8c:6b:2c:ad:a9:2a:33:ee:20:ec:ea:18:c2:d0:26:
                    43:d9:5d:2f:15:3a:72:42:b7:28:18:23:9d:ed:6f:
                    fe:f1:6b:66:d4:eb:f8:13:22:ce:48:f8:b3:58:75:
                    2c:ca:4f:30:24:45:a2:9d:bc:bc:3a:da:47:28:82:
                    07:0f:b2:8d:17:17:68:db:89:cc:2c:de:3e:44:d0:
                    d0:09:a8:6c:f6:2d:d9:16:18:8c:35:de:36:ac:83:
                    fe:4f:cb:20:44:f0:0b:7a:a7:64:12:b1:aa:5d:74:
                    87:95:0e:38:42:4f:68:7e:48:66:31:5f:aa:43:ae:
                    25:db:f0:56:73:89:72:11:fe:13:7c:09:e0:50:3a:
                    d3:53:95:90:a7:e6:7d:59:f5:dc:6c:00:a7:de:7c:
                    b4:23:b5:b7:3e:27:83:c3:89:68:df:0b:1e:8e:df:
                    b9:e7:9b:ff:19:ed:c7:22:b1:e1:66:78:10:12:c8:
                    f9:e8:e6:a7:02:29:8f:a1:33:a0:be:68:90:b3:eb:
                    3c:8e:cd:ef:51:de:5f:ae:4d:2d:50:bd:9d:51:2d:
                    9a:8d
                Exponent: 65537 (0x10001)
        X509v3 extensions:
            X509v3 Subject Alternative Name: 
                DNS:127.0.0.1, DNS:127.0.0.2
    Signature Algorithm: sha256WithRSAEncryption
         41:9d:8f:0b:f2:ab:e2:9e:c1:90:3d:ae:b2:63:2d:94:bb:18:
         86:84:df:a1:ef:c4:06:70:41:73:59:71:67:f5:0e:58:14:2b:
         0f:43:65:7b:f0:12:aa:24:f4:4e:33:e7:43:e5:0b:ed:8c:51:
         5d:9e:a6:51:68:76:3f:e0:4c:f1:09:90:6e:9b:96:ae:03:c5:
         e1:ca:b8:5c:d8:c5:cd:d5:e8:38:2e:59:78:10:3a:43:b0:3c:
         07:e5:f3:66:2a:6a:29:9d:81:74:27:a1:86:2a:cc:7f:0a:c4:
         c4:96:71:b1:08:ba:07:9d:90:28:01:8a:7f:fe:f8:db:f0:fa:
         45:0b:ed:c5:81:84:96:aa:ce:49:90:99:ca:b2:d2:af:0a:ff:
         02:a4:4e:fa:5c:5e:d4:60:42:d1:d2:fc:17:b5:aa:c0:e5:8b:
         d4:e2:26:ee:d2:dc:6a:74:35:c5:67:f3:a7:9a:ed:9d:e2:c2:
         d0:27:88:12:d2:2f:b1:42:67:bd:17:48:1f:cd:6d:9a:00:ff:
         0d:ff:02:24:fd:8f:57:1e:d4:87:3e:5d:71:f0:b6:58:6a:46:
         56:48:aa:94:09:85:a7:54:99:58:8e:a6:a8:ad:43:76:8a:63:
         e0:45:78:2e:8b:3c:f2:46:e9:a5:0c:0c:2c:8f:57:ac:cf:8d:
         90:93:26:87
-----BEGIN CERTIFICATE-----
MIICxzCCAa+gAwIBAgIBATANBgkqhkiG9w0BAQsFADAVMRMwEQYDVQQDDApVbmtu
b3duIENBMB4XDTcwMDEwMTAwMDAwMFoXDTMxMDYxNTAxMTkzN1owFDESMBAGA1UE
AwwJMTI3LjAuMC4xMIIBIjANBgkqhkiG9w0BAQEFAAOCAQ8AMIIBCgKCAQEAtF8a
nXHHLRtdtzpdxzzpj/SzDfoDkfFgcOZujOm8Em7v8Pvhe3+/VACKTZaMayytqSoz
7iDs6hjC0CZD2V0vFTpyQrcoGCOd7W/+8Wtm1Ov4EyLOSPizWHUsyk8wJEWinby8
OtpHKIIHD7KNFxdo24nMLN4+RNDQCahs9i3ZFhiMNd42rIP+T8sgRPALeqdkErGq
XXSHlQ44Qk9ofkhmMV+qQ64l2/BWc4lyEf4TfAngUDrTU5WQp+Z9WfXcbACn3ny0
I7W3PieDw4lo3wsejt+555v/Ge3HIrHhZngQEsj56OanAimPoTOgvmiQs+s8js3v
Ud5frk0tUL2dUS2ajQIDAQABoyMwITAfBgNVHREEGDAWggkxMjcuMC4wLjGCCTEy
Ny4wLjAuMjANBgkqhkiG9w0BAQsFAAOCAQEAQZ2PC/Kr4p7BkD2usmMtlLsYhoTf
oe/EBnBBc1lxZ/UOWBQrD0Nle/ASqiT0TjPnQ+UL7YxRXZ6mUWh2P+BM8QmQbpuW
rgPF4cq4XNjFzdXoOC5ZeBA6Q7A8B+XzZipqKZ2BdCehhirMfwrExJZxsQi6B52Q
KAGKf/742/D6RQvtxYGElqrOSZCZyrLSrwr/AqRO+lxe1GBC0dL8F7WqwOWL1OIm
7tLcanQ1xWfzp5rtneLC0CeIEtIvsUJnvRdIH81tmgD/Df8CJP2PVx7Uhz5dcfC2
WGpGVkiqlAmFp1SZWI6mqK1Ddopj4EV4Los88kbppQwMLI9XrM+NkJMmhw==
-----END CERTIFICATE-----
