Certificate:
    Data:
        Version: 3 (0x2)
        Serial Number: 0 (0x0)
        Signature Algorithm: sha256WithRSAEncryption
        Issuer: CN=Unknown CA
        Validity
            Not Before: Jan  1 00:00:00 1970 GMT
            Not After : Mar 10 06:54:16 2030 GMT
        Subject: CN=Unknown CA
        Subject Public Key Info:
            Public Key Algorithm: rsaEncryption
                RSA Public-Key: (1024 bit)
                Modulus:
                    00:c1:5e:5d:26:ae:73:17:5a:70:37:ac:42:25:ca:
                    05:10:86:17:23:6c:28:84:48:2a:4a:d4:b0:3a:2a:
                    d8:33:ae:58:67:6f:9b:4f:a6:b4:87:b1:ec:37:00:
                    69:8d:d5:cf:71:8a:96:e1:4a:f8:c8:81:36:f9:43:
                    ad:d8:d6:76:83:27:99:a4:48:17:c2:ef:9c:22:40:
                    4b:c6:58:21:88:e5:1d:37:79:4e:ba:31:e6:52:ec:
                    8c:23:ed:d6:ce:3b:58:ad:82:c7:ae:28:47:d4:e7:
                    cc:31:ac:78:c9:02:87:d0:b1:91:09:f6:1e:9a:c3:
                    4f:f6:5a:fe:a2:21:0e:c0:95
                Exponent: 65537 (0x10001)
        X509v3 extensions:
            X509v3 Basic Constraints: critical
                CA:TRUE
            X509v3 Key Usage: critical
                Certificate Sign, CRL Sign
            X509v3 Subject Key Identifier: 
                E9:58:70:FE:F1:C1:AA:5A:70:7A:C1:02:11:1D:9A:F4:60:4F:70:76
            Netscape Comment: 
                Puppet Server Internal Certificate
            X509v3 Authority Key Identifier: 
                keyid:E9:58:70:FE:F1:C1:AA:5A:70:7A:C1:02:11:1D:9A:F4:60:4F:70:76

    Signature Algorithm: sha256WithRSAEncryption
         00:45:89:e8:68:a7:50:8c:92:84:3c:c4:e6:10:00:29:27:99:
         c6:82:aa:aa:b5:0b:ef:97:58:bc:bb:e6:e7:93:7c:a7:ea:e5:
         9a:61:1d:e3:4f:3f:f9:ac:c4:96:14:a5:1f:77:a6:01:dc:08:
         15:9c:3f:66:29:92:80:49:e9:db:d9:22:fb:c3:86:bf:40:ab:
         46:bf:c5:47:bb:c8:89:df:d4:ca:36:f5:08:c4:08:c6:0b:d6:
         9e:8a:86:41:1e:7e:6f:a9:75:ef:8a:94:a9:fd:1a:9b:0f:55:
         3a:55:e5:04:82:71:c3:47:78:62:8e:07:ed:dc:4e:ac:f9:33:
         7b:27
-----BEGIN CERTIFICATE-----
MIICODCCAaGgAwIBAgIBADANBgkqhkiG9w0BAQsFADAVMRMwEQYDVQQDDApVbmtu
b3duIENBMB4XDTcwMDEwMTAwMDAwMFoXDTMwMDMxMDA2NTQxNlowFTETMBEGA1UE
AwwKVW5rbm93biBDQTCBnzANBgkqhkiG9w0BAQEFAAOBjQAwgYkCgYEAwV5dJq5z
F1pwN6xCJcoFEIYXI2wohEgqStSwOirYM65YZ2+bT6a0h7HsNwBpjdXPcYqW4Ur4
yIE2+UOt2NZ2gyeZpEgXwu+cIkBLxlghiOUdN3lOujHmUuyMI+3WzjtYrYLHrihH
1OfMMax4yQKH0LGRCfYemsNP9lr+oiEOwJUCAwEAAaOBlzCBlDAPBgNVHRMBAf8E
BTADAQH/MA4GA1UdDwEB/wQEAwIBBjAdBgNVHQ4EFgQU6Vhw/vHBqlpwesECER2a
9GBPcHYwMQYJYIZIAYb4QgENBCQWIlB1cHBldCBTZXJ2ZXIgSW50ZXJuYWwgQ2Vy
dGlmaWNhdGUwHwYDVR0jBBgwFoAU6Vhw/vHBqlpwesECER2a9GBPcHYwDQYJKoZI
hvcNAQELBQADgYEAAEWJ6GinUIyShDzE5hAAKSeZxoKqqrUL75dYvLvm55N8p+rl
mmEd408/+azElhSlH3emAdwIFZw/ZimSgEnp29ki+8OGv0CrRr/FR7vIid/Uyjb1
CMQIxgvWnoqGQR5+b6l174qUqf0amw9VOlXlBIJxw0d4Yo4H7dxOrPkzeyc=
-----END CERTIFICATE-----
