Certificate:
    Data:
        Version: 3 (0x2)
        Serial Number: 0 (0x0)
        Signature Algorithm: sha256WithRSAEncryption
        Issuer: CN=Unknown CA
        Validity
            Not Before: Jan  1 00:00:00 1970 GMT
            Not After : Jun 24 21:18:00 2033 GMT
        Subject: CN=Unknown CA
        Subject Public Key Info:
            Public Key Algorithm: rsaEncryption
                Public-Key: (2048 bit)
                Modulus:
                    00:a8:08:cd:22:aa:fa:a1:38:0e:d8:be:2f:57:b6:
                    fb:f5:e2:9b:04:72:49:56:15:71:42:1d:12:a8:8f:
                    29:03:63:e1:2a:1f:ec:4d:67:3d:7d:5e:27:a5:21:
                    fe:16:38:a0:f5:de:5c:76:ec:71:7d:6c:ae:ca:8a:
                    30:5d:fe:39:c5:4a:d0:14:13:76:b5:89:d8:58:7a:
                    11:76:54:3e:4d:e3:be:f9:fb:72:80:bc:19:07:0f:
                    e0:53:46:5b:f1:45:8c:d2:5c:af:e4:0f:ab:7d:bc:
                    22:3c:7a:b1:95:7d:6a:04:4b:fa:d2:e8:1e:c4:39:
                    4b:bd:dc:7e:69:ba:8e:a9:96:a5:17:e4:ae:4e:3e:
                    98:ad:2b:55:95:ac:6d:40:4b:20:55:51:31:98:9e:
                    4e:de:b4:37:31:5b:d9:3a:6c:e4:b1:0a:19:ce:5e:
                    a8:e2:29:97:de:3d:c7:50:54:fb:f2:8f:2a:a4:58:
                    a5:52:82:0b:52:c8:4e:6c:5d:78:10:c6:4b:05:36:
                    02:e4:df:bc:95:4a:47:b7:e8:e4:8b:6d:46:ab:fb:
                    fb:41:6b:bb:90:c4:1b:5a:7d:3b:2e:19:2d:0d:95:
                    70:d2:10:f9:7a:1a:ee:8f:20:cb:8d:8d:bf:23:75:
                    11:dd:02:ab:e3:fd:9e:b1:05:3b:63:2e:ab:87:93:
                    63:a3
                Exponent: 65537 (0x10001)
        X509v3 extensions:
            X509v3 Basic Constraints: critical
                CA:TRUE
            X509v3 Key Usage: critical
                Certificate Sign, CRL Sign
            X509v3 Subject Key Identifier: 
                EC:86:9A:24:5D:36:4B:28:24:DD:DF:75:52:D1:83:19:33:37:46:E9
            Netscape Comment: 
                Puppet Server Internal Certificate
            X509v3 Authority Key Identifier: 
                EC:86:9A:24:5D:36:4B:28:24:DD:DF:75:52:D1:83:19:33:37:46:E9
    Signature Algorithm: sha256WithRSAEncryption
    Signature Value:
        5a:5d:26:6a:dc:aa:0e:66:c5:9c:b8:15:09:20:25:0a:46:be:
        6b:b9:b4:6d:a9:74:e3:cd:a4:40:4a:dc:71:d2:fa:50:3c:b9:
        6e:0d:4b:c8:b9:d3:26:06:1b:3a:d7:e5:02:fd:ec:ad:e2:4b:
        ad:19:49:57:11:a3:4c:0e:67:5c:46:63:7a:aa:8f:ca:f0:f5:
        5e:ad:bf:85:3d:1b:88:b8:a8:21:da:25:9c:27:96:70:60:83:
        0e:de:09:c3:a8:20:5f:9a:47:47:70:c8:94:aa:a5:2b:2d:bc:
        c3:74:ee:ff:63:88:95:84:83:fe:66:99:e8:90:c0:ed:3b:1d:
        00:84:1a:29:43:15:53:9d:71:13:71:bf:5b:9a:7d:4e:e1:e2:
        28:1e:38:55:92:f8:16:28:8d:9b:1e:9a:fb:a7:7a:6e:b7:66:
        56:ed:b6:36:ef:f8:f6:21:c9:20:f3:f4:13:9e:a6:21:2e:2c:
        ca:55:b0:2b:6d:2d:4a:58:f5:30:d8:70:eb:66:ac:ea:a8:64:
        23:0d:e8:39:28:34:f5:16:22:f0:84:c1:2a:9b:89:55:8f:72:
        c2:6c:f0:62:bf:39:04:2c:fc:c1:f5:40:ad:fc:b0:c9:0f:ae:
        8d:f4:ce:1b:24:27:06:21:8e:9a:9a:56:40:d8:fe:b2:46:46:
        44:61:43:7c
-----BEGIN CERTIFICATE-----
MIIDPTCCAiWgAwIBAgIBADANBgkqhkiG9w0BAQsFADAVMRMwEQYDVQQDDApVbmtu
b3duIENBMB4XDTcwMDEwMTAwMDAwMFoXDTMzMDYyNDIxMTgwMFowFTETMBEGA1UE
AwwKVW5rbm93biBDQTCCASIwDQYJKoZIhvcNAQEBBQADggEPADCCAQoCggEBAKgI
zSKq+qE4Dti+L1e2+/XimwRySVYVcUIdEqiPKQNj4Sof7E1nPX1eJ6Uh/hY4oPXe
XHbscX1srsqKMF3+OcVK0BQTdrWJ2Fh6EXZUPk3jvvn7coC8GQcP4FNGW/FFjNJc
r+QPq328Ijx6sZV9agRL+tLoHsQ5S73cfmm6jqmWpRfkrk4+mK0rVZWsbUBLIFVR
MZieTt60NzFb2Tps5LEKGc5eqOIpl949x1BU+/KPKqRYpVKCC1LITmxdeBDGSwU2
AuTfvJVKR7fo5IttRqv7+0Fru5DEG1p9Oy4ZLQ2VcNIQ+Xoa7o8gy42NvyN1Ed0C
q+P9nrEFO2Muq4eTY6MCAwEAAaOBlzCBlDAPBgNVHRMBAf8EBTADAQH/MA4GA1Ud
DwEB/wQEAwIBBjAdBgNVHQ4EFgQU7IaaJF02Sygk3d91UtGDGTM3RukwMQYJYIZI
AYb4QgENBCQWIlB1cHBldCBTZXJ2ZXIgSW50ZXJuYWwgQ2VydGlmaWNhdGUwHwYD
VR0jBBgwFoAU7IaaJF02Sygk3d91UtGDGTM3RukwDQYJKoZIhvcNAQELBQADggEB
AFpdJmrcqg5mxZy4FQkgJQpGvmu5tG2pdOPNpEBK3HHS+lA8uW4NS8i50yYGGzrX
5QL97K3iS60ZSVcRo0wOZ1xGY3qqj8rw9V6tv4U9G4i4qCHaJZwnlnBggw7eCcOo
IF+aR0dwyJSqpSstvMN07v9jiJWEg/5mmeiQwO07HQCEGilDFVOdcRNxv1uafU7h
4igeOFWS+BYojZsemvunem63Zlbttjbv+PYhySDz9BOepiEuLMpVsCttLUpY9TDY
cOtmrOqoZCMN6DkoNPUWIvCEwSqbiVWPcsJs8GK/OQQs/MH1QK38sMkPro30zhsk
JwYhjpqaVkDY/rJGRkRhQ3w=
-----END CERTIFICATE-----
