Certificate:
    Data:
        Version: 3 (0x2)
        Serial Number: 0 (0x0)
        Signature Algorithm: sha256WithRSAEncryption
        Issuer: CN=Unknown CA
        Validity
            Not Before: Jan  1 00:00:00 1970 GMT
            Not After : Apr 18 18:46:23 2031 GMT
        Subject: CN=Unknown CA
        Subject Public Key Info:
            Public Key Algorithm: rsaEncryption
                RSA Public-Key: (2048 bit)
                Modulus:
                    00:ea:16:4c:26:71:56:ac:35:bb:2b:f6:1b:18:58:
                    16:0f:1c:39:3f:4d:02:e4:b2:a7:8b:bd:fe:99:57:
                    f2:a5:a8:15:01:79:0d:1d:f6:d9:12:db:d5:26:a2:
                    f6:58:af:4b:2c:aa:46:7a:53:63:9f:1f:1a:9e:1c:
                    fc:9a:8e:20:c8:c8:c8:db:4d:50:8d:4e:19:83:a1:
                    9d:54:49:26:7b:3a:e0:77:1d:7d:88:01:80:46:32:
                    70:47:16:08:71:de:12:94:67:fd:71:1f:41:56:93:
                    15:91:68:bd:05:3b:67:96:1f:7a:4d:d5:1e:b6:ac:
                    41:1f:f0:ce:d3:2d:96:d9:7c:ad:cd:be:b3:32:66:
                    18:03:2c:83:98:f1:e8:96:6f:85:0f:e1:1f:93:d0:
                    f9:09:43:8c:b1:ea:43:26:32:a5:c6:d2:32:75:2d:
                    ed:72:9d:bf:3a:bb:f3:4e:d0:0c:ac:ba:6b:fd:7f:
                    66:d8:12:40:4e:49:e7:d4:ec:70:03:71:37:cb:5e:
                    cc:d3:4f:f3:d2:cc:e2:39:eb:79:6c:71:e5:d1:0e:
                    45:4c:7a:3d:6f:39:e8:16:e7:de:60:eb:01:e7:80:
                    4e:42:1d:1c:33:0a:eb:f9:10:2c:5c:ed:0c:58:0b:
                    8c:fd:6d:f4:19:49:8a:a2:81:ab:04:b0:cb:7a:61:
                    1f:d3
                Exponent: 65537 (0x10001)
        X509v3 extensions:
            X509v3 Basic Constraints: critical
                CA:TRUE
            X509v3 Key Usage: critical
                Certificate Sign, CRL Sign
            X509v3 Subject Key Identifier: 
                16:C5:98:B8:84:0B:0A:43:CB:5A:D2:E0:55:C0:64:AB:89:F8:50:FD
            Netscape Comment: 
                Puppet Server Internal Certificate
            X509v3 Authority Key Identifier: 
                keyid:16:C5:98:B8:84:0B:0A:43:CB:5A:D2:E0:55:C0:64:AB:89:F8:50:FD

    Signature Algorithm: sha256WithRSAEncryption
         7d:0b:a0:2e:d4:fb:6b:29:04:d6:86:4e:89:94:4c:b5:d4:f7:
         79:5a:38:95:51:9a:80:03:82:93:c8:a7:4e:93:4a:4b:41:1a:
         85:f3:46:57:e1:70:50:ad:bb:4e:b9:d6:0c:00:e5:9e:4c:f7:
         26:3b:88:61:27:ad:fa:39:a7:36:e1:62:87:7a:dc:7d:f9:f6:
         c1:ee:bc:db:f7:65:a1:b0:2a:06:ae:4b:cb:99:82:f5:8e:38:
         51:ac:c9:92:33:b9:7b:50:8b:c6:72:36:d3:f2:73:7d:58:13:
         00:21:4d:c6:70:9d:eb:70:58:bf:dc:34:94:7e:bc:ef:17:2d:
         9d:00:bd:55:f9:48:11:c0:8f:88:ea:a8:7c:5d:fb:88:fd:8c:
         b4:00:1d:61:a7:4b:2a:90:ef:96:c1:28:2a:a0:95:ad:bb:b3:
         af:3a:d5:93:1c:54:d7:c5:5b:26:a3:24:87:df:bd:68:74:fa:
         e6:07:4e:13:b9:5f:54:19:ae:da:00:8c:ca:d6:ff:b7:94:6b:
         4f:ff:71:ca:2b:7d:ee:7e:32:ff:03:3e:60:a4:30:d4:7d:9c:
         ab:97:0e:f7:80:ee:69:c0:28:a8:ec:6b:89:05:38:64:34:e8:
         b2:e9:f3:a1:85:e7:3d:e1:64:3c:86:e4:fd:44:4f:3b:2a:f8:
         d2:b4:93:22
-----BEGIN CERTIFICATE-----
MIIDPTCCAiWgAwIBAgIBADANBgkqhkiG9w0BAQsFADAVMRMwEQYDVQQDDApVbmtu
b3duIENBMB4XDTcwMDEwMTAwMDAwMFoXDTMxMDQxODE4NDYyM1owFTETMBEGA1UE
AwwKVW5rbm93biBDQTCCASIwDQYJKoZIhvcNAQEBBQADggEPADCCAQoCggEBAOoW
TCZxVqw1uyv2GxhYFg8cOT9NAuSyp4u9/plX8qWoFQF5DR322RLb1Sai9livSyyq
RnpTY58fGp4c/JqOIMjIyNtNUI1OGYOhnVRJJns64HcdfYgBgEYycEcWCHHeEpRn
/XEfQVaTFZFovQU7Z5Yfek3VHrasQR/wztMtltl8rc2+szJmGAMsg5jx6JZvhQ/h
H5PQ+QlDjLHqQyYypcbSMnUt7XKdvzq7807QDKy6a/1/ZtgSQE5J59TscANxN8te
zNNP89LM4jnreWxx5dEORUx6PW856Bbn3mDrAeeATkIdHDMK6/kQLFztDFgLjP1t
9BlJiqKBqwSwy3phH9MCAwEAAaOBlzCBlDAPBgNVHRMBAf8EBTADAQH/MA4GA1Ud
DwEB/wQEAwIBBjAdBgNVHQ4EFgQUFsWYuIQLCkPLWtLgVcBkq4n4UP0wMQYJYIZI
AYb4QgENBCQWIlB1cHBldCBTZXJ2ZXIgSW50ZXJuYWwgQ2VydGlmaWNhdGUwHwYD
VR0jBBgwFoAUFsWYuIQLCkPLWtLgVcBkq4n4UP0wDQYJKoZIhvcNAQELBQADggEB
AH0LoC7U+2spBNaGTomUTLXU93laOJVRmoADgpPIp06TSktBGoXzRlfhcFCtu065
1gwA5Z5M9yY7iGEnrfo5pzbhYod63H359sHuvNv3ZaGwKgauS8uZgvWOOFGsyZIz
uXtQi8ZyNtPyc31YEwAhTcZwnetwWL/cNJR+vO8XLZ0AvVX5SBHAj4jqqHxd+4j9
jLQAHWGnSyqQ75bBKCqgla27s6861ZMcVNfFWyajJIffvWh0+uYHThO5X1QZrtoA
jMrW/7eUa0//ccorfe5+Mv8DPmCkMNR9nKuXDveA7mnAKKjsa4kFOGQ06LLp86GF
5z3hZDyG5P1ETzsq+NK0kyI=
-----END CERTIFICATE-----
