Certificate:
    Data:
        Version: 3 (0x2)
        Serial Number: 1 (0x1)
        Signature Algorithm: sha256WithRSAEncryption
        Issuer: CN=Unknown CA
        Validity
            Not Before: Jan  1 00:00:00 1970 GMT
            Not After : Mar 10 06:54:16 2030 GMT
        Subject: CN=127.0.0.1
        Subject Public Key Info:
            Public Key Algorithm: rsaEncryption
                RSA Public-Key: (1024 bit)
                Modulus:
                    00:c9:00:0c:66:d2:2d:df:a0:cc:4c:a5:7a:5b:67:
                    10:f1:d2:06:ac:01:0e:da:55:19:a3:dd:b7:85:9c:
                    f1:53:e6:a9:b4:c7:33:43:55:12:0e:e5:ec:cc:75:
                    28:e4:d2:36:2a:02:85:9e:a6:58:4e:f3:ba:91:83:
                    54:d2:b7:46:d4:00:b4:fc:86:9b:db:10:07:a7:8e:
                    47:e5:f0:27:1f:62:eb:94:68:37:c8:c4:d4:fc:ea:
                    0e:b0:94:5d:c3:5a:99:08:6c:f3:27:33:71:5a:47:
                    62:3e:df:18:10:d4:c0:08:2d:f1:47:6b:c1:19:46:
                    3e:32:2f:b4:57:91:50:4c:8f
                Exponent: 65537 (0x10001)
        X509v3 extensions:
            X509v3 Subject Alternative Name: 
                DNS:127.0.0.1, DNS:127.0.0.2
    Signature Algorithm: sha256WithRSAEncryption
         4a:a3:2e:2a:8f:6f:0e:5e:70:19:26:59:05:1d:59:3f:c5:39:
         49:c4:cd:73:99:f2:08:8c:bc:fa:28:e4:33:38:f1:50:a3:0c:
         8e:3b:a3:93:9e:37:5c:69:c0:d9:2d:f2:2e:31:d7:5a:61:d6:
         91:22:6d:3c:1b:4f:c3:b6:57:13:5e:c9:5a:c8:6c:2e:bc:d6:
         42:5b:f0:64:ec:7e:03:3c:f1:43:d9:f9:b7:f1:37:db:a5:0f:
         b9:87:f5:4d:01:93:b4:a6:40:05:dc:ca:fd:31:5b:14:66:f0:
         84:70:48:0c:b8:49:11:3d:f6:9e:aa:e7:b4:21:5b:e6:cc:67:
         ca:d9
-----BEGIN CERTIFICATE-----
MIIBwjCCASugAwIBAgIBATANBgkqhkiG9w0BAQsFADAVMRMwEQYDVQQDDApVbmtu
b3duIENBMB4XDTcwMDEwMTAwMDAwMFoXDTMwMDMxMDA2NTQxNlowFDESMBAGA1UE
AwwJMTI3LjAuMC4xMIGfMA0GCSqGSIb3DQEBAQUAA4GNADCBiQKBgQDJAAxm0i3f
oMxMpXpbZxDx0gasAQ7aVRmj3beFnPFT5qm0xzNDVRIO5ezMdSjk0jYqAoWeplhO
87qRg1TSt0bUALT8hpvbEAenjkfl8CcfYuuUaDfIxNT86g6wlF3DWpkIbPMnM3Fa
R2I+3xgQ1MAILfFHa8EZRj4yL7RXkVBMjwIDAQABoyMwITAfBgNVHREEGDAWggkx
MjcuMC4wLjGCCTEyNy4wLjAuMjANBgkqhkiG9w0BAQsFAAOBgQBKoy4qj28OXnAZ
JlkFHVk/xTlJxM1zmfIIjLz6KOQzOPFQowyOO6OTnjdcacDZLfIuMddaYdaRIm08
G0/DtlcTXslayGwuvNZCW/Bk7H4DPPFD2fm38TfbpQ+5h/VNAZO0pkAF3Mr9MVsU
ZvCEcEgMuEkRPfaeque0IVvmzGfK2Q==
-----END CERTIFICATE-----
