Certificate:
    Data:
        Version: 3 (0x2)
        Serial Number: 0 (0x0)
        Signature Algorithm: sha256WithRSAEncryption
        Issuer: CN=Unknown CA
        Validity
            Not Before: Jan  1 00:00:00 1970 GMT
            Not After : Jan 27 18:43:32 2034 GMT
        Subject: CN=Unknown CA
        Subject Public Key Info:
            Public Key Algorithm: rsaEncryption
                RSA Public-Key: (2048 bit)
                Modulus:
                    00:ae:4c:42:b8:da:d0:6f:11:a4:ba:9c:ba:6b:dd:
                    7a:dd:8d:5f:8b:51:e9:b2:85:4d:9a:26:41:1d:8e:
                    52:2f:19:ed:79:6a:b7:04:f7:8e:9c:82:37:04:26:
                    71:10:3f:98:e6:a3:0c:58:fb:00:84:4f:d0:8d:fa:
                    50:2c:0c:59:1d:48:7d:de:af:5e:b4:27:09:f2:b8:
                    33:18:56:cb:40:9f:09:a7:61:08:88:ed:be:2d:96:
                    9c:03:a3:1a:ad:61:f6:e3:98:23:90:90:5c:66:90:
                    25:06:87:62:4b:f9:87:e6:dd:08:c3:e0:7a:67:3c:
                    1f:f9:cb:99:ad:53:dc:1d:9b:8f:85:0b:84:78:13:
                    95:71:a8:6a:b2:13:20:19:b6:b6:63:5e:3f:68:14:
                    1b:67:c1:75:cf:16:d1:26:c0:94:24:89:ce:3c:b3:
                    6d:05:4d:10:52:40:73:c4:7b:ac:f1:dd:64:6a:f0:
                    62:36:c6:08:17:03:64:d9:fb:1c:e2:99:25:2b:df:
                    47:fc:f8:c9:07:f3:84:96:da:19:27:25:1b:b6:ab:
                    be:0c:93:54:df:0d:2e:38:ab:da:e7:1c:56:86:0c:
                    4b:0a:96:46:30:8f:7c:ab:be:b0:22:6b:92:76:c6:
                    56:32:43:54:ab:18:25:5a:6c:09:05:ba:ca:74:d8:
                    86:1f
                Exponent: 65537 (0x10001)
        X509v3 extensions:
            X509v3 Basic Constraints: critical
                CA:TRUE
            X509v3 Key Usage: critical
                Certificate Sign, CRL Sign
            X509v3 Subject Key Identifier: 
                62:4A:BC:91:9E:B7:40:6C:32:53:82:EC:19:CC:08:28:2D:6A:90:6F
            Netscape Comment: 
                Puppet Server Internal Certificate
            X509v3 Authority Key Identifier: 
                keyid:62:4A:BC:91:9E:B7:40:6C:32:53:82:EC:19:CC:08:28:2D:6A:90:6F

    Signature Algorithm: sha256WithRSAEncryption
         47:5d:e0:f5:db:72:f1:c7:94:1b:3e:1c:8f:75:aa:8c:f0:53:
         f0:2f:82:d6:8c:6f:67:3f:39:6d:9a:0c:73:18:87:8d:53:91:
         18:0e:94:86:22:26:1c:81:f4:71:79:c4:38:9e:55:5e:26:e1:
         69:05:43:3e:00:f8:c3:22:81:f9:a3:d4:43:13:8b:f2:76:b5:
         c8:a7:f7:bb:0e:14:78:e7:29:8a:19:35:95:3a:99:c8:5b:6c:
         ed:57:df:78:ea:0a:05:5d:2a:f3:c5:56:32:fa:2f:ec:1e:69:
         30:ab:87:79:a8:89:f3:ca:f1:17:b2:94:d8:a5:03:92:07:55:
         be:26:c7:2f:96:f8:e5:67:81:8e:63:d8:2b:4e:54:5e:b4:34:
         e8:af:6b:ab:34:78:bc:1c:0b:71:60:23:0f:2e:b6:c8:83:a3:
         ed:77:8d:76:66:8b:fd:07:d8:7b:3d:76:a6:2c:2d:71:66:86:
         d1:cc:89:ed:95:fa:e7:dc:57:3f:14:20:08:4b:44:96:2f:c3:
         f5:42:19:a4:06:5e:11:85:13:62:b8:6b:53:c0:e9:aa:56:41:
         a4:eb:6b:00:4e:c6:85:77:9c:07:83:96:cb:a4:e6:89:3f:5e:
         78:c2:f8:f3:dc:d4:0b:ef:5e:79:23:22:07:c1:fb:c4:7f:98:
         8a:fe:10:cc
-----BEGIN CERTIFICATE-----
MIIDPTCCAiWgAwIBAgIBADANBgkqhkiG9w0BAQsFADAVMRMwEQYDVQQDDApVbmtu
b3duIENBMB4XDTcwMDEwMTAwMDAwMFoXDTM0MDEyNzE4NDMzMlowFTETMBEGA1UE
AwwKVW5rbm93biBDQTCCASIwDQYJKoZIhvcNAQEBBQADggEPADCCAQoCggEBAK5M
Qrja0G8RpLqcumvdet2NX4tR6bKFTZomQR2OUi8Z7XlqtwT3jpyCNwQmcRA/mOaj
DFj7AIRP0I36UCwMWR1Ifd6vXrQnCfK4MxhWy0CfCadhCIjtvi2WnAOjGq1h9uOY
I5CQXGaQJQaHYkv5h+bdCMPgemc8H/nLma1T3B2bj4ULhHgTlXGoarITIBm2tmNe
P2gUG2fBdc8W0SbAlCSJzjyzbQVNEFJAc8R7rPHdZGrwYjbGCBcDZNn7HOKZJSvf
R/z4yQfzhJbaGSclG7arvgyTVN8NLjir2uccVoYMSwqWRjCPfKu+sCJrknbGVjJD
VKsYJVpsCQW6ynTYhh8CAwEAAaOBlzCBlDAPBgNVHRMBAf8EBTADAQH/MA4GA1Ud
DwEB/wQEAwIBBjAdBgNVHQ4EFgQUYkq8kZ63QGwyU4LsGcwIKC1qkG8wMQYJYIZI
AYb4QgENBCQWIlB1cHBldCBTZXJ2ZXIgSW50ZXJuYWwgQ2VydGlmaWNhdGUwHwYD
VR0jBBgwFoAUYkq8kZ63QGwyU4LsGcwIKC1qkG8wDQYJKoZIhvcNAQELBQADggEB
AEdd4PXbcvHHlBs+HI91qozwU/AvgtaMb2c/OW2aDHMYh41TkRgOlIYiJhyB9HF5
xDieVV4m4WkFQz4A+MMigfmj1EMTi/J2tcin97sOFHjnKYoZNZU6mchbbO1X33jq
CgVdKvPFVjL6L+weaTCrh3moifPK8ReylNilA5IHVb4mxy+W+OVngY5j2CtOVF60
NOiva6s0eLwcC3FgIw8utsiDo+13jXZmi/0H2Hs9dqYsLXFmhtHMie2V+ufcVz8U
IAhLRJYvw/VCGaQGXhGFE2K4a1PA6apWQaTrawBOxoV3nAeDlsuk5ok/XnjC+PPc
1AvvXnkjIgfB+8R/mIr+EMw=
-----END CERTIFICATE-----
