Certificate:
    Data:
        Version: 3 (0x2)
        Serial Number: 1 (0x1)
        Signature Algorithm: sha256WithRSAEncryption
        Issuer: CN=Unknown CA
        Validity
            Not Before: Jan  1 00:00:00 1970 GMT
            Not After : Jun 24 21:18:00 2033 GMT
        Subject: CN=127.0.0.1
        Subject Public Key Info:
            Public Key Algorithm: rsaEncryption
                Public-Key: (2048 bit)
                Modulus:
                    00:a1:6e:59:aa:03:84:68:6a:a4:1e:2f:6c:92:b4:
                    4c:2d:bc:7a:65:3a:77:0b:20:06:15:63:70:48:3b:
                    98:08:cb:03:7f:6f:18:be:19:28:e7:7d:e7:3f:f6:
                    c4:c3:02:71:0c:3b:0f:5b:a7:14:36:7b:aa:93:08:
                    16:ec:46:a8:d2:d2:35:78:2c:83:9d:dc:6b:53:27:
                    7d:c6:1d:5d:5a:1b:78:28:ae:c4:86:52:a0:b2:e1:
                    5e:3e:c6:d3:63:2d:a9:f7:cd:8c:1d:bd:d5:88:81:
                    0c:a1:93:9d:36:ca:d7:88:93:30:da:a3:40:40:0e:
                    0b:98:ce:05:4d:de:02:1d:9d:05:8d:c4:ac:8b:28:
                    08:6e:39:1c:66:de:8d:02:27:66:32:96:a5:03:58:
                    7e:d1:ab:bb:f6:42:c2:76:5a:59:ad:b1:4e:c5:fb:
                    93:51:ff:4e:87:c6:74:45:19:55:b9:02:dc:08:4d:
                    12:37:64:1a:e8:3f:14:1b:f7:bc:bf:57:99:b3:bd:
                    6d:87:b6:d9:45:a6:07:24:20:6d:7f:9b:fc:5d:8f:
                    43:9e:b7:fb:ff:8a:b4:d3:11:9e:95:c3:af:7c:a3:
                    09:2d:98:9e:0b:a1:c0:4b:ff:4c:03:41:c1:a2:fe:
                    57:26:6f:1c:39:4d:d9:38:61:02:02:8b:8d:fa:d2:
                    c4:31
                Exponent: 65537 (0x10001)
        X509v3 extensions:
            X509v3 Subject Alternative Name: 
                DNS:127.0.0.1, DNS:127.0.0.2
    Signature Algorithm: sha256WithRSAEncryption
    Signature Value:
        4e:fc:85:4d:87:e0:ae:d2:16:d0:1a:a9:cc:83:d5:46:e6:bc:
        ea:41:ab:59:fb:72:93:f0:2a:71:44:ef:82:8c:4f:1b:67:33:
        2f:f8:f7:47:10:fc:80:de:d8:4c:33:f6:f9:cc:c6:16:99:3e:
        5b:d8:33:91:0c:dc:0f:59:45:b4:fe:ae:d0:b3:17:a3:e8:0a:
        f8:17:0e:84:d6:32:59:ee:3f:57:21:f4:db:ca:79:01:ae:24:
        56:50:c7:bd:00:12:8c:59:73:47:f3:3a:37:5f:2a:37:48:08:
        6c:63:d8:e9:9d:8c:bb:18:e7:36:f1:9f:e6:43:47:50:d2:03:
        30:b2:2e:7c:27:65:79:fe:84:20:da:69:78:fa:ec:8d:8d:ae:
        a9:82:be:f8:3f:e5:84:8e:3a:37:a5:8b:ed:45:22:ba:d6:1e:
        2e:6f:a1:ab:e7:aa:7b:1d:28:19:bc:0c:9a:89:9d:94:15:70:
        70:2b:24:a6:24:4d:79:00:89:7d:51:e2:5f:fa:c6:25:01:dc:
        8f:e0:72:90:e2:5f:1c:5d:1f:a5:a9:1e:d7:2a:e8:6f:03:69:
        c8:e6:a9:b5:fe:c7:60:96:a1:e5:18:e7:9e:af:9f:68:6e:52:
        60:c0:bc:a1:3e:74:51:16:12:3f:a4:53:fc:5d:a1:01:68:31:
        82:8a:67:c9
-----BEGIN CERTIFICATE-----
MIICxzCCAa+gAwIBAgIBATANBgkqhkiG9w0BAQsFADAVMRMwEQYDVQQDDApVbmtu
b3duIENBMB4XDTcwMDEwMTAwMDAwMFoXDTMzMDYyNDIxMTgwMFowFDESMBAGA1UE
AwwJMTI3LjAuMC4xMIIBIjANBgkqhkiG9w0BAQEFAAOCAQ8AMIIBCgKCAQEAoW5Z
qgOEaGqkHi9skrRMLbx6ZTp3CyAGFWNwSDuYCMsDf28Yvhko533nP/bEwwJxDDsP
W6cUNnuqkwgW7Eao0tI1eCyDndxrUyd9xh1dWht4KK7EhlKgsuFePsbTYy2p982M
Hb3ViIEMoZOdNsrXiJMw2qNAQA4LmM4FTd4CHZ0FjcSsiygIbjkcZt6NAidmMpal
A1h+0au79kLCdlpZrbFOxfuTUf9Oh8Z0RRlVuQLcCE0SN2Qa6D8UG/e8v1eZs71t
h7bZRaYHJCBtf5v8XY9Dnrf7/4q00xGelcOvfKMJLZieC6HAS/9MA0HBov5XJm8c
OU3ZOGECAouN+tLEMQIDAQABoyMwITAfBgNVHREEGDAWggkxMjcuMC4wLjGCCTEy
Ny4wLjAuMjANBgkqhkiG9w0BAQsFAAOCAQEATvyFTYfgrtIW0BqpzIPVRua86kGr
Wftyk/AqcUTvgoxPG2czL/j3RxD8gN7YTDP2+czGFpk+W9gzkQzcD1lFtP6u0LMX
o+gK+BcOhNYyWe4/VyH028p5Aa4kVlDHvQASjFlzR/M6N18qN0gIbGPY6Z2Muxjn
NvGf5kNHUNIDMLIufCdlef6EINppePrsjY2uqYK++D/lhI46N6WL7UUiutYeLm+h
q+eqex0oGbwMmomdlBVwcCskpiRNeQCJfVHiX/rGJQHcj+BykOJfHF0fpake1yro
bwNpyOaptf7HYJah5Rjnnq+faG5SYMC8oT50URYSP6RT/F2hAWgxgopnyQ==
-----END CERTIFICATE-----
