Certificate:
    Data:
        Version: 3 (0x2)
        Serial Number: 1 (0x1)
        Signature Algorithm: sha256WithRSAEncryption
        Issuer: CN=Unknown CA
        Validity
            Not Before: Jan  1 00:00:00 1970 GMT
            Not After : Jan 27 18:43:32 2034 GMT
        Subject: CN=127.0.0.1
        Subject Public Key Info:
            Public Key Algorithm: rsaEncryption
                RSA Public-Key: (2048 bit)
                Modulus:
                    00:ca:58:a4:83:cd:f9:ba:e2:42:9e:d4:ef:52:88:
                    2e:0a:65:74:54:0e:71:82:fe:62:e7:97:91:d1:51:
                    45:12:3f:a6:5c:ba:a3:37:0d:09:c5:d3:3f:7e:24:
                    13:36:ad:be:b6:83:3e:ca:53:ac:b5:e6:e5:0f:2b:
                    68:fb:a2:1e:55:09:79:51:ad:c1:a5:30:f2:fb:ad:
                    cf:59:c1:35:3e:08:f8:a8:20:49:3f:3e:37:e9:46:
                    1a:3f:af:a2:d7:c2:57:9c:6e:2d:ef:36:8b:fa:c8:
                    83:58:ed:bb:58:33:52:42:df:93:29:26:7a:92:70:
                    42:1e:f9:80:33:a2:08:f0:b3:2e:7b:7d:9a:07:e1:
                    41:9c:c1:3c:94:52:38:e2:3a:a3:72:f3:08:75:db:
                    38:ac:9f:f0:39:e7:e3:40:e5:22:34:0f:06:3a:d6:
                    33:40:7c:0a:41:27:ef:a9:06:95:c5:33:84:7b:96:
                    a9:9e:4b:3e:c4:a9:02:ce:a8:6b:61:e4:59:bb:f2:
                    2b:6f:2e:3d:41:75:74:5d:94:3a:8d:6b:28:3e:d9:
                    10:da:09:42:a0:35:84:66:63:57:8b:b6:3a:c1:fd:
                    1b:be:56:b1:16:a3:e4:18:60:e2:70:66:63:23:21:
                    13:25:87:5f:ab:6d:07:4c:8c:62:52:ac:c7:69:4d:
                    e7:bb
                Exponent: 65537 (0x10001)
        X509v3 extensions:
            X509v3 Subject Alternative Name: 
                DNS:127.0.0.1, DNS:127.0.0.2
    Signature Algorithm: sha256WithRSAEncryption
         94:63:d8:4e:ec:a1:98:49:08:5d:b1:14:e4:2e:db:1d:0f:f2:
         88:0a:be:f4:2a:23:0f:80:f7:3a:93:c2:b1:7a:0e:c7:93:23:
         82:24:87:f5:65:9c:18:63:51:b5:9e:0d:b2:cd:9d:13:01:83:
         f6:f2:d4:94:c5:00:97:9e:72:6e:3b:29:7f:4e:73:72:52:2c:
         e5:8f:ce:f3:18:08:8b:fc:dc:64:c1:f5:2f:5b:56:29:89:b4:
         74:d6:66:3e:f7:f0:18:67:a8:c8:6e:fc:bc:ff:35:28:6f:85:
         52:10:e2:fd:c4:87:f3:18:20:40:ea:e3:e6:11:6d:4c:c0:d4:
         e7:05:d5:02:09:02:43:15:4a:d5:b6:db:97:ba:d5:31:00:68:
         9f:20:34:59:77:33:e5:5d:c1:f3:4b:78:d7:d2:83:aa:a6:cc:
         60:cf:79:27:b1:18:9b:09:64:61:41:0b:23:7a:c4:38:53:05:
         e7:55:d7:26:2f:7b:f9:36:8d:82:2c:f1:bf:89:c6:cf:b9:30:
         d9:42:05:83:43:91:cc:36:0c:e1:74:af:6d:1c:fb:38:77:c6:
         cb:46:9d:63:df:9e:f8:4e:a5:40:ba:6c:14:01:0e:72:7c:87:
         62:06:ba:1f:25:2b:ce:22:be:8d:8f:d2:45:d6:45:6f:d3:7e:
         cd:fa:34:40
-----BEGIN CERTIFICATE-----
MIICxzCCAa+gAwIBAgIBATANBgkqhkiG9w0BAQsFADAVMRMwEQYDVQQDDApVbmtu
b3duIENBMB4XDTcwMDEwMTAwMDAwMFoXDTM0MDEyNzE4NDMzMlowFDESMBAGA1UE
AwwJMTI3LjAuMC4xMIIBIjANBgkqhkiG9w0BAQEFAAOCAQ8AMIIBCgKCAQEAylik
g835uuJCntTvUoguCmV0VA5xgv5i55eR0VFFEj+mXLqjNw0JxdM/fiQTNq2+toM+
ylOsteblDyto+6IeVQl5Ua3BpTDy+63PWcE1Pgj4qCBJPz436UYaP6+i18JXnG4t
7zaL+siDWO27WDNSQt+TKSZ6knBCHvmAM6II8LMue32aB+FBnME8lFI44jqjcvMI
dds4rJ/wOefjQOUiNA8GOtYzQHwKQSfvqQaVxTOEe5apnks+xKkCzqhrYeRZu/Ir
by49QXV0XZQ6jWsoPtkQ2glCoDWEZmNXi7Y6wf0bvlaxFqPkGGDicGZjIyETJYdf
q20HTIxiUqzHaU3nuwIDAQABoyMwITAfBgNVHREEGDAWggkxMjcuMC4wLjGCCTEy
Ny4wLjAuMjANBgkqhkiG9w0BAQsFAAOCAQEAlGPYTuyhmEkIXbEU5C7bHQ/yiAq+
9CojD4D3OpPCsXoOx5MjgiSH9WWcGGNRtZ4Nss2dEwGD9vLUlMUAl55ybjspf05z
clIs5Y/O8xgIi/zcZMH1L1tWKYm0dNZmPvfwGGeoyG78vP81KG+FUhDi/cSH8xgg
QOrj5hFtTMDU5wXVAgkCQxVK1bbbl7rVMQBonyA0WXcz5V3B80t419KDqqbMYM95
J7EYmwlkYUELI3rEOFMF51XXJi97+TaNgizxv4nGz7kw2UIFg0ORzDYM4XSvbRz7
OHfGy0adY9+e+E6lQLpsFAEOcnyHYga6HyUrziK+jY/SRdZFb9N+zfo0QA==
-----END CERTIFICATE-----
