Certificate:
    Data:
        Version: 3 (0x2)
        Serial Number: 0 (0x0)
        Signature Algorithm: sha256WithRSAEncryption
        Issuer: CN=Unknown CA
        Validity
            Not Before: Jan  1 00:00:00 1970 GMT
            Not After : Jun 15 01:19:37 2031 GMT
        Subject: CN=Unknown CA
        Subject Public Key Info:
            Public Key Algorithm: rsaEncryption
                RSA Public-Key: (2048 bit)
                Modulus:
                    00:b4:79:b0:16:e7:9b:22:20:17:4b:36:87:eb:38:
                    03:1f:df:88:00:1b:37:40:5e:1f:1d:89:1f:3e:f4:
                    fa:69:90:9c:d8:68:df:c8:71:07:07:4e:01:1d:f0:
                    a8:9a:67:94:af:47:f2:b8:60:f5:ca:fb:bb:ac:7c:
                    23:58:59:bc:95:b0:ad:b2:c7:a0:28:e1:4f:1e:c4:
                    ef:5f:2b:a3:4e:f2:6a:95:c8:4f:f5:af:bc:fa:36:
                    10:f9:a9:62:7a:04:d5:01:cd:9b:ba:97:32:4c:99:
                    e5:88:fc:05:84:34:f5:4a:f2:f1:ec:04:c7:c7:63:
                    28:eb:9e:ee:91:cd:95:8b:60:9e:5f:51:a1:2b:5a:
                    cd:02:b2:a7:52:6c:d1:8a:ab:b1:c4:52:cd:10:ce:
                    9e:56:24:6c:63:84:2c:15:6c:c0:62:ea:c2:d9:04:
                    88:e2:e2:0f:ff:ce:87:51:eb:77:50:83:33:1c:c7:
                    88:5b:08:d4:3a:22:2f:13:a6:89:f7:4b:a0:2e:30:
                    c1:12:7a:bb:37:1f:aa:87:56:44:2f:5a:63:4b:b2:
                    36:f6:29:5e:b8:67:52:6f:63:2a:ad:3d:c3:a5:45:
                    af:97:e9:85:9e:76:1e:51:9c:68:36:58:32:ad:cf:
                    3e:4d:f0:92:e2:ad:d6:f0:e1:5d:af:08:ca:2a:82:
                    0e:a3
                Exponent: 65537 (0x10001)
        X509v3 extensions:
            X509v3 Basic Constraints: critical
                CA:TRUE
            X509v3 Key Usage: critical
                Certificate Sign, CRL Sign
            X509v3 Subject Key Identifier: 
                D0:CD:40:49:88:F6:74:BB:B4:D7:05:37:74:33:B1:C2:27:73:81:CB
            Netscape Comment: 
                Puppet Server Internal Certificate
            X509v3 Authority Key Identifier: 
                keyid:D0:CD:40:49:88:F6:74:BB:B4:D7:05:37:74:33:B1:C2:27:73:81:CB

    Signature Algorithm: sha256WithRSAEncryption
         51:79:86:29:27:07:e5:fc:59:83:2d:15:ae:5f:c4:bc:0a:71:
         2c:71:74:20:14:ce:47:8f:cf:79:03:76:bd:df:c9:e9:7f:12:
         b2:4e:5a:c5:4f:e1:0b:c3:17:44:92:37:af:10:08:75:9a:d9:
         c5:0d:66:e9:24:2b:ec:00:aa:de:2f:ce:df:04:fa:49:d9:bd:
         bd:5e:7b:e4:e7:1e:9e:20:d3:85:70:b4:95:b5:1d:2e:fa:0c:
         b4:47:5a:38:ec:b0:bd:7e:34:5f:4d:9d:1f:81:81:8a:6c:a6:
         94:fb:f8:41:d6:a3:e4:64:3a:b7:12:4f:9e:4e:60:4a:12:a9:
         d1:87:a5:a8:31:91:16:96:50:73:87:64:46:f1:f2:f9:99:80:
         a2:89:e9:99:57:48:8a:56:08:d7:8d:a9:1d:69:7c:8f:73:e5:
         53:2d:28:ee:70:d7:f8:fe:41:25:3e:4c:6c:de:31:3f:9e:7d:
         c4:f0:67:e9:fc:a3:02:c7:39:19:f5:6f:59:6a:ca:bb:8c:c8:
         e6:01:43:ad:95:67:3f:c0:d6:35:18:b1:6e:9f:e1:ce:c7:be:
         35:f0:7b:65:e7:79:82:c3:b6:f7:48:28:98:d0:5c:3c:97:f3:
         69:b3:5e:c3:a0:c5:82:02:6f:20:d0:1b:cd:43:b0:85:7e:4f:
         71:b9:f3:8f
-----BEGIN CERTIFICATE-----
MIIDPTCCAiWgAwIBAgIBADANBgkqhkiG9w0BAQsFADAVMRMwEQYDVQQDDApVbmtu
b3duIENBMB4XDTcwMDEwMTAwMDAwMFoXDTMxMDYxNTAxMTkzN1owFTETMBEGA1UE
AwwKVW5rbm93biBDQTCCASIwDQYJKoZIhvcNAQEBBQADggEPADCCAQoCggEBALR5
sBbnmyIgF0s2h+s4Ax/fiAAbN0BeHx2JHz70+mmQnNho38hxBwdOAR3wqJpnlK9H
8rhg9cr7u6x8I1hZvJWwrbLHoCjhTx7E718ro07yapXIT/WvvPo2EPmpYnoE1QHN
m7qXMkyZ5Yj8BYQ09Ury8ewEx8djKOue7pHNlYtgnl9RoStazQKyp1Js0YqrscRS
zRDOnlYkbGOELBVswGLqwtkEiOLiD//Oh1Hrd1CDMxzHiFsI1DoiLxOmifdLoC4w
wRJ6uzcfqodWRC9aY0uyNvYpXrhnUm9jKq09w6VFr5fphZ52HlGcaDZYMq3PPk3w
kuKt1vDhXa8IyiqCDqMCAwEAAaOBlzCBlDAPBgNVHRMBAf8EBTADAQH/MA4GA1Ud
DwEB/wQEAwIBBjAdBgNVHQ4EFgQU0M1ASYj2dLu01wU3dDOxwidzgcswMQYJYIZI
AYb4QgENBCQWIlB1cHBldCBTZXJ2ZXIgSW50ZXJuYWwgQ2VydGlmaWNhdGUwHwYD
VR0jBBgwFoAU0M1ASYj2dLu01wU3dDOxwidzgcswDQYJKoZIhvcNAQELBQADggEB
AFF5hiknB+X8WYMtFa5fxLwKcSxxdCAUzkePz3kDdr3fyel/ErJOWsVP4QvDF0SS
N68QCHWa2cUNZukkK+wAqt4vzt8E+knZvb1ee+TnHp4g04VwtJW1HS76DLRHWjjs
sL1+NF9NnR+BgYpsppT7+EHWo+RkOrcST55OYEoSqdGHpagxkRaWUHOHZEbx8vmZ
gKKJ6ZlXSIpWCNeNqR1pfI9z5VMtKO5w1/j+QSU+TGzeMT+efcTwZ+n8owLHORn1
b1lqyruMyOYBQ62VZz/A1jUYsW6f4c7HvjXwe2XneYLDtvdIKJjQXDyX82mzXsOg
xYICbyDQG81DsIV+T3G5848=
-----END CERTIFICATE-----
