Certificate:
    Data:
        Version: 3 (0x2)
        Serial Number: 1 (0x1)
        Signature Algorithm: sha256WithRSAEncryption
        Issuer: CN=Unknown CA
        Validity
            Not Before: Jan  1 00:00:00 1970 GMT
            Not After : Apr 18 18:46:23 2031 GMT
        Subject: CN=127.0.0.1
        Subject Public Key Info:
            Public Key Algorithm: rsaEncryption
                RSA Public-Key: (2048 bit)
                Modulus:
                    00:c3:c8:2b:f4:88:83:50:13:f7:3d:f8:b6:b8:7b:
                    d0:58:7e:88:9c:a5:c2:30:72:36:9d:9a:d1:73:79:
                    c1:6d:06:3f:3b:f3:10:b6:87:3d:55:a4:e2:a9:c1:
                    48:d4:fd:30:8f:36:46:2f:96:bc:a5:e4:35:d9:89:
                    b2:8b:8b:90:ab:9a:b1:f9:ed:fa:67:3e:ea:27:42:
                    59:67:bb:69:18:e6:d7:0d:1a:0e:ad:c2:58:62:24:
                    05:6e:18:39:db:09:7d:96:a5:c9:c7:56:ba:68:e0:
                    06:27:37:15:e9:5c:f3:bf:b0:29:9b:0d:c7:ea:54:
                    a7:41:3f:11:11:db:23:3b:23:33:3e:c7:9c:d7:82:
                    99:23:df:c2:5a:4d:90:2f:73:64:92:bc:b8:f5:b5:
                    3f:56:e2:5d:95:e2:a8:3f:fa:ed:96:af:b8:3d:63:
                    fd:cd:24:2d:27:32:c8:41:7e:38:e8:02:3e:87:ce:
                    ab:f2:40:4d:a2:ec:42:ea:b5:14:ff:9d:ca:4b:d9:
                    de:84:4d:45:b7:d9:d9:56:7b:e3:7d:af:de:19:76:
                    91:cb:72:e9:b0:02:ca:8b:75:f8:54:23:ae:03:ab:
                    ec:48:ba:d6:c9:1a:0b:5b:7d:f9:f1:d7:9a:1a:83:
                    89:b9:f7:e7:ea:2c:11:2f:0f:c4:63:78:ff:5b:80:
                    be:0f
                Exponent: 65537 (0x10001)
        X509v3 extensions:
            X509v3 Subject Alternative Name: 
                DNS:127.0.0.1, DNS:127.0.0.2
    Signature Algorithm: sha256WithRSAEncryption
         c5:f2:04:d3:b9:16:b1:fa:4a:2f:b8:0c:30:ef:ce:bd:2e:4f:
         25:b6:aa:6f:c8:ae:1a:b4:e7:e6:86:51:28:34:53:ff:58:07:
         68:d8:a0:ce:79:c7:2f:71:2c:55:1c:67:82:05:7d:f4:ce:d8:
         b7:d7:71:67:03:e8:a2:38:34:16:83:8c:df:c3:27:80:e2:f9:
         12:83:a0:49:e1:f3:5f:1d:c0:e2:68:91:77:f0:1d:a6:63:8b:
         1d:96:ee:46:ec:41:cd:3c:55:63:a9:4b:5c:68:d6:44:67:47:
         43:4a:21:8b:13:a2:10:06:5c:0f:1b:d5:e7:4d:b3:72:aa:bd:
         cc:ac:e7:cf:8b:89:51:3c:d0:d3:0e:75:37:91:a0:e4:73:5b:
         74:80:7d:64:a3:ee:4d:69:7d:97:15:35:1a:a9:a8:2a:f6:12:
         d1:b7:73:ad:f1:ca:d9:9b:96:d6:66:ac:14:e5:88:2d:7e:ce:
         20:61:94:4a:18:41:27:8e:2d:ad:45:d7:2e:ff:a8:d6:2c:a2:
         01:54:28:16:15:84:5e:94:2d:56:a2:90:b3:31:40:3a:a8:04:
         8d:42:55:45:10:7a:fe:19:4d:d9:b4:ef:95:2e:cf:6e:28:3f:
         cb:12:7d:aa:34:96:60:b2:29:7e:6c:c3:bd:3b:f7:4c:6e:31:
         25:60:b5:96
-----BEGIN CERTIFICATE-----
MIICxzCCAa+gAwIBAgIBATANBgkqhkiG9w0BAQsFADAVMRMwEQYDVQQDDApVbmtu
b3duIENBMB4XDTcwMDEwMTAwMDAwMFoXDTMxMDQxODE4NDYyM1owFDESMBAGA1UE
AwwJMTI3LjAuMC4xMIIBIjANBgkqhkiG9w0BAQEFAAOCAQ8AMIIBCgKCAQEAw8gr
9IiDUBP3Pfi2uHvQWH6InKXCMHI2nZrRc3nBbQY/O/MQtoc9VaTiqcFI1P0wjzZG
L5a8peQ12Ymyi4uQq5qx+e36Zz7qJ0JZZ7tpGObXDRoOrcJYYiQFbhg52wl9lqXJ
x1a6aOAGJzcV6Vzzv7Apmw3H6lSnQT8REdsjOyMzPsec14KZI9/CWk2QL3Nkkry4
9bU/VuJdleKoP/rtlq+4PWP9zSQtJzLIQX446AI+h86r8kBNouxC6rUU/53KS9ne
hE1Ft9nZVnvjfa/eGXaRy3LpsALKi3X4VCOuA6vsSLrWyRoLW3358deaGoOJuffn
6iwRLw/EY3j/W4C+DwIDAQABoyMwITAfBgNVHREEGDAWggkxMjcuMC4wLjGCCTEy
Ny4wLjAuMjANBgkqhkiG9w0BAQsFAAOCAQEAxfIE07kWsfpKL7gMMO/OvS5PJbaq
b8iuGrTn5oZRKDRT/1gHaNigznnHL3EsVRxnggV99M7Yt9dxZwPoojg0FoOM38Mn
gOL5EoOgSeHzXx3A4miRd/AdpmOLHZbuRuxBzTxVY6lLXGjWRGdHQ0ohixOiEAZc
DxvV502zcqq9zKznz4uJUTzQ0w51N5Gg5HNbdIB9ZKPuTWl9lxU1GqmoKvYS0bdz
rfHK2ZuW1masFOWILX7OIGGUShhBJ44trUXXLv+o1iyiAVQoFhWEXpQtVqKQszFA
OqgEjUJVRRB6/hlN2bTvlS7Pbig/yxJ9qjSWYLIpfmzDvTv3TG4xJWC1lg==
-----END CERTIFICATE-----
